(lp0
(lp1
F0.0011753
aF0.25004
aF0.3
aa(lp2
F0.0039003
aF0.25157
aF0.29861
aa(lp3
F0.006602
aF0.25305
aF0.29722
aa(lp4
F0.0092914
aF0.25456
aF0.29581
aa(lp5
F0.012175
aF0.25604
aF0.2944
aa(lp6
F0.014801
aF0.25755
aF0.293
aa(lp7
F0.01745
aF0.25907
aF0.29161
aa(lp8
F0.020096
aF0.26057
aF0.29018
aa(lp9
F0.022743
aF0.26208
aF0.28878
aa(lp10
F0.025398
aF0.26361
aF0.28735
aa(lp11
F0.028064
aF0.26511
aF0.28592
aa(lp12
F0.030746
aF0.26664
aF0.2845
aa(lp13
F0.033437
aF0.26816
aF0.28309
aa(lp14
F0.036369
aF0.26971
aF0.28165
aa(lp15
F0.039136
aF0.27124
aF0.28021
aa(lp16
F0.041941
aF0.27278
aF0.27878
aa(lp17
F0.044597
aF0.27432
aF0.27734
aa(lp18
F0.047216
aF0.27589
aF0.27591
aa(lp19
F0.049816
aF0.27743
aF0.27443
aa(lp20
F0.052305
aF0.279
aF0.27298
aa(lp21
F0.054846
aF0.28053
aF0.27151
aa(lp22
F0.057331
aF0.28213
aF0.27007
aa(lp23
F0.059903
aF0.28369
aF0.2686
aa(lp24
F0.062324
aF0.28526
aF0.2671
aa(lp25
F0.064737
aF0.28684
aF0.26564
aa(lp26
F0.067177
aF0.28844
aF0.26416
aa(lp27
F0.069647
aF0.29003
aF0.26267
aa(lp28
F0.072007
aF0.29165
aF0.26118
aa(lp29
F0.074435
aF0.29324
aF0.25969
aa(lp30
F0.076803
aF0.29484
aF0.25817
aa(lp31
F0.079232
aF0.29647
aF0.25667
aa(lp32
F0.081738
aF0.29808
aF0.25518
aa(lp33
F0.084163
aF0.29972
aF0.25365
aa(lp34
F0.086556
aF0.30134
aF0.25213
aa(lp35
F0.089008
aF0.30298
aF0.25059
aa(lp36
F0.091487
aF0.30463
aF0.24907
aa(lp37
F0.093906
aF0.3063
aF0.24754
aa(lp38
F0.096327
aF0.30793
aF0.24598
aa(lp39
F0.098845
aF0.30961
aF0.24443
aa(lp40
F0.10132
aF0.31127
aF0.24288
aa(lp41
F0.10384
aF0.31294
aF0.24134
aa(lp42
F0.10637
aF0.31461
aF0.23978
aa(lp43
F0.10884
aF0.31632
aF0.23821
aa(lp44
F0.1114
aF0.318
aF0.23666
aa(lp45
F0.11391
aF0.3197
aF0.23509
aa(lp46
F0.11648
aF0.32139
aF0.23347
aa(lp47
F0.11904
aF0.32311
aF0.23191
aa(lp48
F0.12156
aF0.32481
aF0.2303
aa(lp49
F0.12416
aF0.32653
aF0.22873
aa(lp50
F0.12676
aF0.32826
aF0.22712
aa(lp51
F0.12938
aF0.33
aF0.22551
aa(lp52
F0.132
aF0.33173
aF0.22389
aa(lp53
F0.13465
aF0.33348
aF0.22228
aa(lp54
F0.13728
aF0.33524
aF0.22068
aa(lp55
F0.13988
aF0.33699
aF0.21904
aa(lp56
F0.14258
aF0.33874
aF0.21741
aa(lp57
F0.14528
aF0.34051
aF0.21578
aa(lp58
F0.14793
aF0.34229
aF0.21413
aa(lp59
F0.15062
aF0.34406
aF0.21248
aa(lp60
F0.15331
aF0.34584
aF0.21083
aa(lp61
F0.15607
aF0.34765
aF0.20917
aa(lp62
F0.15879
aF0.34944
aF0.20751
aa(lp63
F0.16154
aF0.35125
aF0.20585
aa(lp64
F0.16429
aF0.35306
aF0.20419
aa(lp65
F0.16705
aF0.35489
aF0.20248
aa(lp66
F0.16983
aF0.35671
aF0.20078
aa(lp67
F0.17259
aF0.35853
aF0.1991
aa(lp68
F0.1754
aF0.36036
aF0.19742
aa(lp69
F0.17824
aF0.36222
aF0.19572
aa(lp70
F0.18102
aF0.36406
aF0.19403
aa(lp71
F0.18387
aF0.36593
aF0.1923
aa(lp72
F0.18672
aF0.36779
aF0.19058
aa(lp73
F0.18959
aF0.36966
aF0.18887
aa(lp74
F0.19246
aF0.37154
aF0.18714
aa(lp75
F0.19535
aF0.37344
aF0.18542
aa(lp76
F0.19825
aF0.37533
aF0.18364
aa(lp77
F0.20116
aF0.37724
aF0.18189
aa(lp78
F0.20413
aF0.37915
aF0.18014
aa(lp79
F0.20706
aF0.38108
aF0.17841
aa(lp80
F0.21001
aF0.383
aF0.1766
aa(lp81
F0.21297
aF0.38493
aF0.17486
aa(lp82
F0.21599
aF0.38688
aF0.17306
aa(lp83
F0.21898
aF0.38884
aF0.17127
aa(lp84
F0.22199
aF0.39081
aF0.1695
aa(lp85
F0.22501
aF0.39277
aF0.16768
aa(lp86
F0.22809
aF0.39476
aF0.16585
aa(lp87
F0.23115
aF0.39674
aF0.16407
aa(lp88
F0.23423
aF0.39875
aF0.16224
aa(lp89
F0.23735
aF0.40078
aF0.16037
aa(lp90
F0.24043
aF0.40279
aF0.15857
aa(lp91
F0.24357
aF0.40482
aF0.15671
aa(lp92
F0.24673
aF0.40687
aF0.15484
aa(lp93
F0.24989
aF0.40893
aF0.15296
aa(lp94
F0.2531
aF0.411
aF0.15109
aa(lp95
F0.25629
aF0.41308
aF0.14922
aa(lp96
F0.25954
aF0.41517
aF0.14733
aa(lp97
F0.26278
aF0.41728
aF0.14546
aa(lp98
F0.26606
aF0.41939
aF0.14352
aa(lp99
F0.26935
aF0.42151
aF0.14161
aa(lp100
F0.27265
aF0.42366
aF0.13963
aa(lp101
F0.276
aF0.42581
aF0.13775
aa(lp102
F0.27935
aF0.42799
aF0.13575
aa(lp103
F0.28274
aF0.43017
aF0.13382
aa(lp104
F0.28611
aF0.43238
aF0.13185
aa(lp105
F0.28956
aF0.43459
aF0.12989
aa(lp106
F0.293
aF0.43682
aF0.12788
aa(lp107
F0.29648
aF0.43906
aF0.12588
aa(lp108
F0.29998
aF0.44132
aF0.12382
aa(lp109
F0.3035
aF0.44361
aF0.12179
aa(lp110
F0.30706
aF0.44589
aF0.11977
aa(lp111
F0.31066
aF0.44821
aF0.11773
aa(lp112
F0.31426
aF0.45054
aF0.11568
aa(lp113
F0.3179
aF0.45289
aF0.11362
aa(lp114
F0.32156
aF0.45525
aF0.11153
aa(lp115
F0.32526
aF0.45763
aF0.10944
aa(lp116
F0.32901
aF0.46003
aF0.10731
aa(lp117
F0.33277
aF0.46245
aF0.10513
aa(lp118
F0.33654
aF0.4649
aF0.10304
aa(lp119
F0.34037
aF0.46736
aF0.10085
aa(lp120
F0.34422
aF0.46984
aF0.098693
aa(lp121
F0.34812
aF0.47233
aF0.096453
aa(lp122
F0.35204
aF0.47486
aF0.094325
aa(lp123
F0.35601
aF0.47738
aF0.092102
aa(lp124
F0.36
aF0.47994
aF0.089849
aa(lp125
F0.36403
aF0.48251
aF0.087617
aa(lp126
F0.36811
aF0.4851
aF0.085276
aa(lp127
F0.37221
aF0.48772
aF0.082993
aa(lp128
F0.37638
aF0.49034
aF0.080686
aa(lp129
F0.38057
aF0.49296
aF0.078304
aa(lp130
F0.3848
aF0.49562
aF0.075955
aa(lp131
F0.38909
aF0.49829
aF0.073656
aa(lp132
F0.39341
aF0.50095
aF0.071224
aa(lp133
F0.39779
aF0.50362
aF0.068802
aa(lp134
F0.4022
aF0.5063
aF0.066264
aa(lp135
F0.40668
aF0.50898
aF0.063774
aa(lp136
F0.4112
aF0.51164
aF0.061172
aa(lp137
F0.41578
aF0.51431
aF0.058651
aa(lp138
F0.4204
aF0.51695
aF0.05607
aa(lp139
F0.42509
aF0.51956
aF0.053359
aa(lp140
F0.42981
aF0.52214
aF0.050712
aa(lp141
F0.4346
aF0.5247
aF0.047969
aa(lp142
F0.43943
aF0.52722
aF0.045272
aa(lp143
F0.44432
aF0.52967
aF0.042483
aa(lp144
F0.44924
aF0.53207
aF0.039697
aa(lp145
F0.45421
aF0.5344
aF0.036906
aa(lp146
F0.45922
aF0.53666
aF0.034001
aa(lp147
F0.46428
aF0.53884
aF0.031435
aa(lp148
F0.46935
aF0.54092
aF0.028957
aa(lp149
F0.47444
aF0.54291
aF0.026597
aa(lp150
F0.47956
aF0.5448
aF0.024363
aa(lp151
F0.48468
aF0.54659
aF0.022265
aa(lp152
F0.48982
aF0.54827
aF0.020312
aa(lp153
F0.49497
aF0.54985
aF0.018512
aa(lp154
F0.5001
aF0.55132
aF0.016876
aa(lp155
F0.50524
aF0.55269
aF0.015412
aa(lp156
F0.51038
aF0.55397
aF0.014132
aa(lp157
F0.5155
aF0.55517
aF0.013033
aa(lp158
F0.52063
aF0.55628
aF0.01218
aa(lp159
F0.52575
aF0.55735
aF0.011416
aa(lp160
F0.53088
aF0.55835
aF0.010839
aa(lp161
F0.53601
aF0.55933
aF0.010585
aa(lp162
F0.54115
aF0.5603
aF0.010612
aa(lp163
F0.54633
aF0.56126
aF0.010945
aa(lp164
F0.55153
aF0.56225
aF0.011649
aa(lp165
F0.55677
aF0.56328
aF0.012516
aa(lp166
F0.56207
aF0.56438
aF0.01365
aa(lp167
F0.56742
aF0.56555
aF0.015118
aa(lp168
F0.57285
aF0.56684
aF0.016927
aa(lp169
F0.57835
aF0.56824
aF0.019098
aa(lp170
F0.58394
aF0.56978
aF0.021653
aa(lp171
F0.58963
aF0.57149
aF0.024617
aa(lp172
F0.59541
aF0.57336
aF0.028014
aa(lp173
F0.60129
aF0.5754
aF0.03187
aa(lp174
F0.60728
aF0.57763
aF0.036408
aa(lp175
F0.61335
aF0.58006
aF0.041287
aa(lp176
F0.61954
aF0.58268
aF0.046299
aa(lp177
F0.62581
aF0.58551
aF0.051565
aa(lp178
F0.63218
aF0.58853
aF0.057023
aa(lp179
F0.63862
aF0.59176
aF0.062625
aa(lp180
F0.64514
aF0.59517
aF0.068288
aa(lp181
F0.65173
aF0.59876
aF0.074092
aa(lp182
F0.65837
aF0.60254
aF0.079969
aa(lp183
F0.66506
aF0.60647
aF0.085984
aa(lp184
F0.6718
aF0.61057
aF0.0922
aa(lp185
F0.67856
aF0.6148
aF0.098456
aa(lp186
F0.68534
aF0.61918
aF0.10476
aa(lp187
F0.69213
aF0.62366
aF0.11129
aa(lp188
F0.69891
aF0.62825
aF0.11783
aa(lp189
F0.70569
aF0.63293
aF0.12447
aa(lp190
F0.71245
aF0.63769
aF0.13125
aa(lp191
F0.71918
aF0.64252
aF0.1381
aa(lp192
F0.72588
aF0.6474
aF0.14503
aa(lp193
F0.73253
aF0.65232
aF0.15201
aa(lp194
F0.73912
aF0.65728
aF0.15912
aa(lp195
F0.74564
aF0.66226
aF0.16629
aa(lp196
F0.7521
aF0.66724
aF0.17352
aa(lp197
F0.75847
aF0.67223
aF0.18082
aa(lp198
F0.76475
aF0.67721
aF0.18823
aa(lp199
F0.77094
aF0.68215
aF0.19562
aa(lp200
F0.77702
aF0.68709
aF0.20308
aa(lp201
F0.78299
aF0.69199
aF0.21059
aa(lp202
F0.78886
aF0.69684
aF0.21813
aa(lp203
F0.79459
aF0.70164
aF0.2257
aa(lp204
F0.80021
aF0.7064
aF0.23325
aa(lp205
F0.8057
aF0.7111
aF0.24084
aa(lp206
F0.81106
aF0.71574
aF0.24845
aa(lp207
F0.81631
aF0.72031
aF0.25601
aa(lp208
F0.82142
aF0.72482
aF0.26361
aa(lp209
F0.8264
aF0.72926
aF0.27115
aa(lp210
F0.83127
aF0.73364
aF0.2787
aa(lp211
F0.83602
aF0.73795
aF0.28619
aa(lp212
F0.84066
aF0.74221
aF0.29369
aa(lp213
F0.84519
aF0.74639
aF0.30114
aa(lp214
F0.84961
aF0.75052
aF0.30859
aa(lp215
F0.85394
aF0.75459
aF0.31598
aa(lp216
F0.85818
aF0.7586
aF0.32333
aa(lp217
F0.86234
aF0.76255
aF0.33065
aa(lp218
F0.86641
aF0.76646
aF0.33794
aa(lp219
F0.87042
aF0.77032
aF0.3452
aa(lp220
F0.87436
aF0.77414
aF0.35241
aa(lp221
F0.87824
aF0.77792
aF0.3596
aa(lp222
F0.88207
aF0.78167
aF0.36676
aa(lp223
F0.88585
aF0.78537
aF0.37388
aa(lp224
F0.88958
aF0.78905
aF0.38098
aa(lp225
F0.89328
aF0.7927
aF0.38804
aa(lp226
F0.89694
aF0.79632
aF0.39508
aa(lp227
F0.90057
aF0.79992
aF0.40209
aa(lp228
F0.90417
aF0.8035
aF0.40909
aa(lp229
F0.90775
aF0.80706
aF0.41606
aa(lp230
F0.9113
aF0.8106
aF0.423
aa(lp231
F0.91484
aF0.81412
aF0.42995
aa(lp232
F0.91835
aF0.81764
aF0.43686
aa(lp233
F0.92186
aF0.82114
aF0.44376
aa(lp234
F0.92534
aF0.82462
aF0.45064
aa(lp235
F0.92882
aF0.8281
aF0.45751
aa(lp236
F0.93228
aF0.83157
aF0.46438
aa(lp237
F0.93573
aF0.83502
aF0.47121
aa(lp238
F0.93918
aF0.83847
aF0.47804
aa(lp239
F0.94261
aF0.84192
aF0.48486
aa(lp240
F0.94603
aF0.84535
aF0.49169
aa(lp241
F0.94945
aF0.84878
aF0.49849
aa(lp242
F0.95286
aF0.85221
aF0.50528
aa(lp243
F0.95627
aF0.85563
aF0.51207
aa(lp244
F0.95966
aF0.85904
aF0.51886
aa(lp245
F0.96305
aF0.86246
aF0.52563
aa(lp246
F0.96643
aF0.86586
aF0.53241
aa(lp247
F0.96981
aF0.86927
aF0.53917
aa(lp248
F0.97318
aF0.87268
aF0.54594
aa(lp249
F0.97654
aF0.87608
aF0.55269
aa(lp250
F0.9799
aF0.87948
aF0.55945
aa(lp251
F0.98325
aF0.88288
aF0.5662
aa(lp252
F0.98659
aF0.88628
aF0.57296
aa(lp253
F0.98993
aF0.88968
aF0.57971
aa(lp254
F0.99326
aF0.89308
aF0.58645
aa(lp255
F0.99658
aF0.89648
aF0.5932
aa(lp256
F0.9999
aF0.89988
aF0.59995
aa.