(lp0
(lp1
F0.0035963
aF0.099991
aF0.3501
aa(lp2
F0.0059481
aF0.10412
aF0.35081
aa(lp3
F0.0082407
aF0.10821
aF0.3515
aa(lp4
F0.010454
aF0.11235
aF0.3522
aa(lp5
F0.012856
aF0.11642
aF0.35291
aa(lp6
F0.014995
aF0.12044
aF0.3536
aa(lp7
F0.01708
aF0.12449
aF0.3543
aa(lp8
F0.019118
aF0.12854
aF0.355
aa(lp9
F0.021113
aF0.13257
aF0.35569
aa(lp10
F0.023067
aF0.13656
aF0.35638
aa(lp11
F0.024983
aF0.14061
aF0.35708
aa(lp12
F0.026865
aF0.14462
aF0.35777
aa(lp13
F0.028714
aF0.14859
aF0.35844
aa(lp14
F0.030534
aF0.1526
aF0.35913
aa(lp15
F0.032329
aF0.15664
aF0.35983
aa(lp16
F0.034083
aF0.16061
aF0.36051
aa(lp17
F0.036051
aF0.16464
aF0.3612
aa(lp18
F0.037779
aF0.16866
aF0.3619
aa(lp19
F0.039498
aF0.17266
aF0.36258
aa(lp20
F0.041209
aF0.17667
aF0.36326
aa(lp21
F0.042752
aF0.1807
aF0.36394
aa(lp22
F0.044421
aF0.18476
aF0.36463
aa(lp23
F0.045902
aF0.1888
aF0.36531
aa(lp24
F0.047477
aF0.19284
aF0.366
aa(lp25
F0.049077
aF0.19691
aF0.36668
aa(lp26
F0.050475
aF0.20094
aF0.36735
aa(lp27
F0.051912
aF0.20504
aF0.36803
aa(lp28
F0.053357
aF0.20912
aF0.36871
aa(lp29
F0.054819
aF0.2132
aF0.36938
aa(lp30
F0.056316
aF0.21733
aF0.37004
aa(lp31
F0.057649
aF0.22144
aF0.3707
aa(lp32
F0.059196
aF0.22557
aF0.37135
aa(lp33
F0.060593
aF0.22968
aF0.372
aa(lp34
F0.062035
aF0.23383
aF0.37264
aa(lp35
F0.063527
aF0.23799
aF0.37327
aa(lp36
F0.064987
aF0.24215
aF0.3739
aa(lp37
F0.066494
aF0.24631
aF0.37451
aa(lp38
F0.068052
aF0.25049
aF0.37509
aa(lp39
F0.069648
aF0.2547
aF0.37567
aa(lp40
F0.071235
aF0.25888
aF0.37624
aa(lp41
F0.072855
aF0.26307
aF0.37679
aa(lp42
F0.07453
aF0.26725
aF0.3773
aa(lp43
F0.076235
aF0.27146
aF0.37779
aa(lp44
F0.078026
aF0.27569
aF0.37825
aa(lp45
F0.079917
aF0.27988
aF0.37869
aa(lp46
F0.081925
aF0.28408
aF0.37909
aa(lp47
F0.083913
aF0.28828
aF0.37945
aa(lp48
F0.08592
aF0.29248
aF0.37978
aa(lp49
F0.088158
aF0.29668
aF0.38006
aa(lp50
F0.09042
aF0.30085
aF0.38029
aa(lp51
F0.092737
aF0.30503
aF0.38048
aa(lp52
F0.095262
aF0.3092
aF0.3806
aa(lp53
F0.097825
aF0.31333
aF0.38067
aa(lp54
F0.10046
aF0.31745
aF0.38068
aa(lp55
F0.10329
aF0.32154
aF0.38061
aa(lp56
F0.10621
aF0.32562
aF0.38048
aa(lp57
F0.10923
aF0.32969
aF0.38027
aa(lp58
F0.11238
aF0.33371
aF0.37998
aa(lp59
F0.11564
aF0.33769
aF0.37961
aa(lp60
F0.11905
aF0.34165
aF0.37916
aa(lp61
F0.12253
aF0.34556
aF0.37861
aa(lp62
F0.12623
aF0.34945
aF0.37798
aa(lp63
F0.13003
aF0.35328
aF0.37725
aa(lp64
F0.13391
aF0.35707
aF0.37643
aa(lp65
F0.13795
aF0.36079
aF0.37549
aa(lp66
F0.14208
aF0.36449
aF0.37447
aa(lp67
F0.14633
aF0.36813
aF0.37332
aa(lp68
F0.15071
aF0.3717
aF0.37208
aa(lp69
F0.1552
aF0.37522
aF0.37074
aa(lp70
F0.15977
aF0.37868
aF0.3693
aa(lp71
F0.1645
aF0.38208
aF0.36774
aa(lp72
F0.1693
aF0.38542
aF0.36609
aa(lp73
F0.17416
aF0.3887
aF0.36432
aa(lp74
F0.17913
aF0.39191
aF0.36246
aa(lp75
F0.18418
aF0.39505
aF0.36048
aa(lp76
F0.18931
aF0.39814
aF0.35843
aa(lp77
F0.19453
aF0.40116
aF0.35628
aa(lp78
F0.19975
aF0.4041
aF0.35402
aa(lp79
F0.20509
aF0.40699
aF0.35168
aa(lp80
F0.21047
aF0.40981
aF0.34927
aa(lp81
F0.21592
aF0.41258
aF0.34676
aa(lp82
F0.22139
aF0.41527
aF0.34417
aa(lp83
F0.22691
aF0.41791
aF0.34152
aa(lp84
F0.23246
aF0.42048
aF0.3388
aa(lp85
F0.23805
aF0.42301
aF0.336
aa(lp86
F0.24366
aF0.42549
aF0.33316
aa(lp87
F0.24933
aF0.42791
aF0.33025
aa(lp88
F0.25503
aF0.43027
aF0.32728
aa(lp89
F0.26071
aF0.4326
aF0.32427
aa(lp90
F0.26644
aF0.43487
aF0.32123
aa(lp91
F0.27216
aF0.4371
aF0.31814
aa(lp92
F0.27794
aF0.43929
aF0.31501
aa(lp93
F0.2837
aF0.44145
aF0.31185
aa(lp94
F0.2895
aF0.44356
aF0.30869
aa(lp95
F0.29528
aF0.44564
aF0.30549
aa(lp96
F0.30109
aF0.44769
aF0.30224
aa(lp97
F0.30693
aF0.44972
aF0.29901
aa(lp98
F0.31275
aF0.45172
aF0.29574
aa(lp99
F0.3186
aF0.45369
aF0.29247
aa(lp100
F0.32445
aF0.45564
aF0.2892
aa(lp101
F0.33033
aF0.45757
aF0.28589
aa(lp102
F0.3362
aF0.45948
aF0.28262
aa(lp103
F0.34209
aF0.46138
aF0.27932
aa(lp104
F0.34799
aF0.46324
aF0.27603
aa(lp105
F0.35389
aF0.46511
aF0.27271
aa(lp106
F0.35983
aF0.46697
aF0.26943
aa(lp107
F0.36577
aF0.46881
aF0.26614
aa(lp108
F0.37171
aF0.47064
aF0.26284
aa(lp109
F0.37769
aF0.47246
aF0.25957
aa(lp110
F0.38368
aF0.47428
aF0.25628
aa(lp111
F0.38968
aF0.47609
aF0.25304
aa(lp112
F0.39573
aF0.47789
aF0.24977
aa(lp113
F0.40177
aF0.4797
aF0.24655
aa(lp114
F0.40785
aF0.48149
aF0.24332
aa(lp115
F0.41396
aF0.48329
aF0.24012
aa(lp116
F0.42009
aF0.48508
aF0.23697
aa(lp117
F0.42626
aF0.48688
aF0.23378
aa(lp118
F0.43247
aF0.48868
aF0.23066
aa(lp119
F0.4387
aF0.49048
aF0.22756
aa(lp120
F0.44499
aF0.49227
aF0.22446
aa(lp121
F0.45132
aF0.49408
aF0.22145
aa(lp122
F0.45768
aF0.49588
aF0.21846
aa(lp123
F0.46412
aF0.4977
aF0.2155
aa(lp124
F0.47059
aF0.4995
aF0.2126
aa(lp125
F0.47712
aF0.50134
aF0.20975
aa(lp126
F0.48372
aF0.50315
aF0.20699
aa(lp127
F0.49039
aF0.50499
aF0.20428
aa(lp128
F0.49712
aF0.50682
aF0.20161
aa(lp129
F0.50393
aF0.50867
aF0.19906
aa(lp130
F0.5108
aF0.51051
aF0.19664
aa(lp131
F0.51777
aF0.51237
aF0.1943
aa(lp132
F0.5248
aF0.51424
aF0.19204
aa(lp133
F0.53193
aF0.51609
aF0.18994
aa(lp134
F0.53913
aF0.51798
aF0.18801
aa(lp135
F0.54644
aF0.51984
aF0.18619
aa(lp136
F0.55381
aF0.52172
aF0.18453
aa(lp137
F0.56129
aF0.52361
aF0.18305
aa(lp138
F0.56885
aF0.52549
aF0.18177
aa(lp139
F0.57651
aF0.52738
aF0.18071
aa(lp140
F0.58424
aF0.52927
aF0.17987
aa(lp141
F0.59207
aF0.53114
aF0.17926
aa(lp142
F0.59997
aF0.53302
aF0.1789
aa(lp143
F0.60795
aF0.53488
aF0.17878
aa(lp144
F0.616
aF0.53675
aF0.17893
aa(lp145
F0.62413
aF0.5386
aF0.17934
aa(lp146
F0.6323
aF0.54044
aF0.18004
aa(lp147
F0.64054
aF0.54227
aF0.18102
aa(lp148
F0.64882
aF0.54408
aF0.1823
aa(lp149
F0.65715
aF0.54588
aF0.18389
aa(lp150
F0.6655
aF0.54765
aF0.1858
aa(lp151
F0.67388
aF0.54942
aF0.18797
aa(lp152
F0.68228
aF0.55115
aF0.19039
aa(lp153
F0.69068
aF0.55287
aF0.19314
aa(lp154
F0.69909
aF0.55457
aF0.19617
aa(lp155
F0.70748
aF0.55624
aF0.19944
aa(lp156
F0.71587
aF0.5579
aF0.20302
aa(lp157
F0.72422
aF0.55953
aF0.20686
aa(lp158
F0.73255
aF0.56114
aF0.2109
aa(lp159
F0.74083
aF0.56275
aF0.21519
aa(lp160
F0.74907
aF0.56432
aF0.21974
aa(lp161
F0.75726
aF0.56587
aF0.22446
aa(lp162
F0.7654
aF0.56742
aF0.22943
aa(lp163
F0.77347
aF0.56895
aF0.23462
aa(lp164
F0.78147
aF0.57047
aF0.23995
aa(lp165
F0.7894
aF0.57199
aF0.24548
aa(lp166
F0.79725
aF0.57351
aF0.25122
aa(lp167
F0.80502
aF0.57502
aF0.25709
aa(lp168
F0.8127
aF0.57654
aF0.26314
aa(lp169
F0.82029
aF0.57805
aF0.26935
aa(lp170
F0.82778
aF0.57959
aF0.27571
aa(lp171
F0.83517
aF0.58113
aF0.28221
aa(lp172
F0.84245
aF0.58268
aF0.28885
aa(lp173
F0.84962
aF0.58427
aF0.29563
aa(lp174
F0.85666
aF0.58588
aF0.30254
aa(lp175
F0.86358
aF0.5875
aF0.30962
aa(lp176
F0.87037
aF0.58915
aF0.31679
aa(lp177
F0.87702
aF0.59085
aF0.32408
aa(lp178
F0.88353
aF0.59259
aF0.3315
aa(lp179
F0.88988
aF0.59435
aF0.33905
aa(lp180
F0.89607
aF0.59615
aF0.34668
aa(lp181
F0.90209
aF0.598
aF0.35442
aa(lp182
F0.90794
aF0.59989
aF0.36226
aa(lp183
F0.91361
aF0.60183
aF0.37019
aa(lp184
F0.91909
aF0.60382
aF0.37821
aa(lp185
F0.92437
aF0.60584
aF0.38629
aa(lp186
F0.92946
aF0.60792
aF0.39446
aa(lp187
F0.93433
aF0.61004
aF0.40269
aa(lp188
F0.93901
aF0.6122
aF0.41098
aa(lp189
F0.94346
aF0.61441
aF0.41931
aa(lp190
F0.9477
aF0.61668
aF0.42769
aa(lp191
F0.95172
aF0.61898
aF0.43609
aa(lp192
F0.95553
aF0.62131
aF0.44453
aa(lp193
F0.95911
aF0.62369
aF0.45297
aa(lp194
F0.96247
aF0.6261
aF0.46144
aa(lp195
F0.96562
aF0.62855
aF0.46991
aa(lp196
F0.96856
aF0.63103
aF0.47837
aa(lp197
F0.97129
aF0.63354
aF0.48684
aa(lp198
F0.97382
aF0.63607
aF0.4953
aa(lp199
F0.97616
aF0.63863
aF0.50374
aa(lp200
F0.9783
aF0.64121
aF0.51217
aa(lp201
F0.98026
aF0.64382
aF0.52058
aa(lp202
F0.98205
aF0.64645
aF0.52898
aa(lp203
F0.98367
aF0.64909
aF0.53735
aa(lp204
F0.98513
aF0.65175
aF0.54569
aa(lp205
F0.98644
aF0.65441
aF0.55401
aa(lp206
F0.98761
aF0.6571
aF0.56232
aa(lp207
F0.98865
aF0.6598
aF0.57059
aa(lp208
F0.98957
aF0.66251
aF0.57886
aa(lp209
F0.99037
aF0.66521
aF0.58709
aa(lp210
F0.99106
aF0.66794
aF0.59532
aa(lp211
F0.99166
aF0.67068
aF0.60353
aa(lp212
F0.99216
aF0.67341
aF0.61172
aa(lp213
F0.99259
aF0.67616
aF0.61991
aa(lp214
F0.99294
aF0.67891
aF0.62808
aa(lp215
F0.99321
aF0.68166
aF0.63624
aa(lp216
F0.99343
aF0.68443
aF0.6444
aa(lp217
F0.99359
aF0.6872
aF0.65256
aa(lp218
F0.9937
aF0.68998
aF0.66071
aa(lp219
F0.99376
aF0.69277
aF0.66888
aa(lp220
F0.99378
aF0.69555
aF0.67704
aa(lp221
F0.99376
aF0.69834
aF0.6852
aa(lp222
F0.99371
aF0.70115
aF0.69338
aa(lp223
F0.99363
aF0.70395
aF0.70156
aa(lp224
F0.99353
aF0.70677
aF0.70975
aa(lp225
F0.9934
aF0.70959
aF0.71796
aa(lp226
F0.99324
aF0.71241
aF0.72617
aa(lp227
F0.99307
aF0.71524
aF0.7344
aa(lp228
F0.99288
aF0.71808
aF0.74265
aa(lp229
F0.99267
aF0.72092
aF0.75091
aa(lp230
F0.99245
aF0.72377
aF0.75918
aa(lp231
F0.99222
aF0.72663
aF0.76747
aa(lp232
F0.99197
aF0.7295
aF0.77578
aa(lp233
F0.99171
aF0.73237
aF0.78411
aa(lp234
F0.99143
aF0.73525
aF0.79245
aa(lp235
F0.99115
aF0.73813
aF0.80082
aa(lp236
F0.99085
aF0.74102
aF0.8092
aa(lp237
F0.99055
aF0.74392
aF0.8176
aa(lp238
F0.99023
aF0.74683
aF0.82602
aa(lp239
F0.9899
aF0.74973
aF0.83446
aa(lp240
F0.98956
aF0.75265
aF0.84291
aa(lp241
F0.9892
aF0.75558
aF0.85138
aa(lp242
F0.98883
aF0.75851
aF0.85988
aa(lp243
F0.98844
aF0.76144
aF0.86839
aa(lp244
F0.98804
aF0.76439
aF0.87691
aa(lp245
F0.98762
aF0.76733
aF0.88546
aa(lp246
F0.98718
aF0.77029
aF0.89402
aa(lp247
F0.98673
aF0.77325
aF0.9026
aa(lp248
F0.98625
aF0.77622
aF0.9112
aa(lp249
F0.98575
aF0.77919
aF0.91981
aa(lp250
F0.98523
aF0.78217
aF0.92844
aa(lp251
F0.98468
aF0.78515
aF0.93708
aa(lp252
F0.9841
aF0.78814
aF0.94574
aa(lp253
F0.9835
aF0.79113
aF0.95441
aa(lp254
F0.98287
aF0.79413
aF0.9631
aa(lp255
F0.98221
aF0.79713
aF0.9718
aa(lp256
F0.98151
aF0.80015
aF0.98051
aa.