(lp0
(lp1
I1
aI1
aI1
aa(lp2
F0.99442
aF0.99442
aF0.99442
aa(lp3
F0.98886
aF0.98886
aF0.98886
aa(lp4
F0.98329
aF0.98329
aF0.98329
aa(lp5
F0.97773
aF0.97773
aF0.97773
aa(lp6
F0.97218
aF0.97218
aF0.97218
aa(lp7
F0.96663
aF0.96663
aF0.96663
aa(lp8
F0.9611
aF0.9611
aF0.9611
aa(lp9
F0.95556
aF0.95556
aF0.95556
aa(lp10
F0.95003
aF0.95003
aF0.95003
aa(lp11
F0.94451
aF0.94451
aF0.94451
aa(lp12
F0.939
aF0.939
aF0.939
aa(lp13
F0.93348
aF0.93348
aF0.93348
aa(lp14
F0.92798
aF0.92798
aF0.92798
aa(lp15
F0.92249
aF0.92249
aF0.92249
aa(lp16
F0.917
aF0.917
aF0.917
aa(lp17
F0.91151
aF0.91151
aF0.91151
aa(lp18
F0.90604
aF0.90604
aF0.90603
aa(lp19
F0.90057
aF0.90057
aF0.90056
aa(lp20
F0.89512
aF0.89512
aF0.89509
aa(lp21
F0.88968
aF0.88967
aF0.88962
aa(lp22
F0.88427
aF0.88425
aF0.88416
aa(lp23
F0.87887
aF0.87884
aF0.8787
aa(lp24
F0.87351
aF0.87346
aF0.87324
aa(lp25
F0.86819
aF0.86811
aF0.86779
aa(lp26
F0.86291
aF0.8628
aF0.86233
aa(lp27
F0.85769
aF0.85753
aF0.85687
aa(lp28
F0.85256
aF0.85232
aF0.8514
aa(lp29
F0.8475
aF0.84718
aF0.84594
aa(lp30
F0.84256
aF0.84213
aF0.84047
aa(lp31
F0.83774
aF0.83718
aF0.83498
aa(lp32
F0.83306
aF0.83233
aF0.8295
aa(lp33
F0.82855
aF0.82761
aF0.82399
aa(lp34
F0.82421
aF0.82304
aF0.81848
aa(lp35
F0.82007
aF0.8186
aF0.81296
aa(lp36
F0.81613
aF0.81434
aF0.80744
aa(lp37
F0.8124
aF0.81024
aF0.80189
aa(lp38
F0.8089
aF0.80632
aF0.79635
aa(lp39
F0.80561
aF0.80256
aF0.7908
aa(lp40
F0.80253
aF0.79898
aF0.78525
aa(lp41
F0.79967
aF0.79556
aF0.77968
aa(lp42
F0.79698
aF0.7923
aF0.77412
aa(lp43
F0.79449
aF0.78918
aF0.76856
aa(lp44
F0.79215
aF0.78619
aF0.76301
aa(lp45
F0.78996
aF0.78331
aF0.75746
aa(lp46
F0.78789
aF0.78054
aF0.75191
aa(lp47
F0.78594
aF0.77786
aF0.74636
aa(lp48
F0.78407
aF0.77524
aF0.74082
aa(lp49
F0.78226
aF0.77269
aF0.73529
aa(lp50
F0.78052
aF0.77019
aF0.72977
aa(lp51
F0.77883
aF0.76773
aF0.72424
aa(lp52
F0.77717
aF0.7653
aF0.71873
aa(lp53
F0.77554
aF0.76288
aF0.71322
aa(lp54
F0.77392
aF0.7605
aF0.70772
aa(lp55
F0.77233
aF0.75812
aF0.70222
aa(lp56
F0.77075
aF0.75575
aF0.69673
aa(lp57
F0.76917
aF0.75339
aF0.69124
aa(lp58
F0.7676
aF0.75104
aF0.68577
aa(lp59
F0.76604
aF0.74869
aF0.68028
aa(lp60
F0.76448
aF0.74634
aF0.67482
aa(lp61
F0.76291
aF0.744
aF0.66936
aa(lp62
F0.76135
aF0.74166
aF0.6639
aa(lp63
F0.75979
aF0.73933
aF0.65844
aa(lp64
F0.75824
aF0.73699
aF0.65298
aa(lp65
F0.75668
aF0.73466
aF0.64754
aa(lp66
F0.75513
aF0.73232
aF0.6421
aa(lp67
F0.75358
aF0.72999
aF0.63667
aa(lp68
F0.75203
aF0.72766
aF0.63124
aa(lp69
F0.75048
aF0.72534
aF0.62581
aa(lp70
F0.74892
aF0.72301
aF0.62039
aa(lp71
F0.74738
aF0.72069
aF0.61497
aa(lp72
F0.74583
aF0.71837
aF0.60956
aa(lp73
F0.74429
aF0.71606
aF0.60416
aa(lp74
F0.74275
aF0.71373
aF0.59875
aa(lp75
F0.7412
aF0.71142
aF0.59335
aa(lp76
F0.73967
aF0.70911
aF0.58795
aa(lp77
F0.73812
aF0.7068
aF0.58256
aa(lp78
F0.73658
aF0.70449
aF0.57718
aa(lp79
F0.73505
aF0.70218
aF0.57179
aa(lp80
F0.73351
aF0.69987
aF0.56642
aa(lp81
F0.73197
aF0.69756
aF0.56104
aa(lp82
F0.73044
aF0.69526
aF0.55566
aa(lp83
F0.7289
aF0.69296
aF0.55031
aa(lp84
F0.72737
aF0.69064
aF0.54496
aa(lp85
F0.72584
aF0.68833
aF0.53961
aa(lp86
F0.72431
aF0.686
aF0.53428
aa(lp87
F0.72277
aF0.68367
aF0.52898
aa(lp88
F0.72125
aF0.68132
aF0.52369
aa(lp89
F0.71973
aF0.67896
aF0.51843
aa(lp90
F0.7182
aF0.67659
aF0.51321
aa(lp91
F0.71669
aF0.67417
aF0.50805
aa(lp92
F0.71517
aF0.67172
aF0.50293
aa(lp93
F0.71366
aF0.66923
aF0.49791
aa(lp94
F0.71216
aF0.66669
aF0.49296
aa(lp95
F0.71067
aF0.66409
aF0.48814
aa(lp96
F0.70919
aF0.66143
aF0.48343
aa(lp97
F0.70772
aF0.65869
aF0.47889
aa(lp98
F0.70628
aF0.65589
aF0.4745
aa(lp99
F0.70485
aF0.65298
aF0.4703
aa(lp100
F0.70345
aF0.65001
aF0.46628
aa(lp101
F0.70206
aF0.64694
aF0.46247
aa(lp102
F0.70071
aF0.64379
aF0.45888
aa(lp103
F0.69938
aF0.64056
aF0.4555
aa(lp104
F0.69808
aF0.63725
aF0.45233
aa(lp105
F0.6968
aF0.63386
aF0.44936
aa(lp106
F0.69556
aF0.63041
aF0.44659
aa(lp107
F0.69433
aF0.62689
aF0.444
aa(lp108
F0.69314
aF0.62333
aF0.44158
aa(lp109
F0.69196
aF0.61971
aF0.4393
aa(lp110
F0.69079
aF0.61606
aF0.43716
aa(lp111
F0.68965
aF0.61238
aF0.43513
aa(lp112
F0.68853
aF0.60869
aF0.43318
aa(lp113
F0.68741
aF0.60496
aF0.43133
aa(lp114
F0.6863
aF0.60123
aF0.42953
aa(lp115
F0.6852
aF0.59749
aF0.42778
aa(lp116
F0.6841
aF0.59374
aF0.42606
aa(lp117
F0.68302
aF0.58998
aF0.42438
aa(lp118
F0.68193
aF0.58623
aF0.42272
aa(lp119
F0.68085
aF0.58247
aF0.42108
aa(lp120
F0.67978
aF0.57871
aF0.41946
aa(lp121
F0.67871
aF0.57496
aF0.41783
aa(lp122
F0.67764
aF0.57121
aF0.41622
aa(lp123
F0.67656
aF0.56746
aF0.41461
aa(lp124
F0.67549
aF0.56372
aF0.41301
aa(lp125
F0.67442
aF0.55997
aF0.41139
aa(lp126
F0.67335
aF0.55622
aF0.40979
aa(lp127
F0.67229
aF0.55249
aF0.40819
aa(lp128
F0.67121
aF0.54875
aF0.40659
aa(lp129
F0.67015
aF0.54501
aF0.40498
aa(lp130
F0.66908
aF0.54127
aF0.40339
aa(lp131
F0.66802
aF0.53755
aF0.40177
aa(lp132
F0.66694
aF0.53381
aF0.40018
aa(lp133
F0.66588
aF0.53009
aF0.39858
aa(lp134
F0.66481
aF0.52636
aF0.39698
aa(lp135
F0.66376
aF0.52263
aF0.39539
aa(lp136
F0.66269
aF0.51892
aF0.39379
aa(lp137
F0.66163
aF0.51519
aF0.3922
aa(lp138
F0.66056
aF0.51147
aF0.3906
aa(lp139
F0.6595
aF0.50775
aF0.38901
aa(lp140
F0.65844
aF0.50404
aF0.38741
aa(lp141
F0.65738
aF0.50031
aF0.38581
aa(lp142
F0.65632
aF0.49659
aF0.38422
aa(lp143
F0.65525
aF0.49288
aF0.38263
aa(lp144
F0.65419
aF0.48916
aF0.38105
aa(lp145
F0.65312
aF0.48545
aF0.37945
aa(lp146
F0.65207
aF0.48174
aF0.37785
aa(lp147
F0.65101
aF0.47803
aF0.37627
aa(lp148
F0.64994
aF0.47431
aF0.37467
aa(lp149
F0.64888
aF0.4706
aF0.37307
aa(lp150
F0.64782
aF0.46689
aF0.37148
aa(lp151
F0.64676
aF0.46316
aF0.36989
aa(lp152
F0.64569
aF0.45946
aF0.3683
aa(lp153
F0.64463
aF0.45574
aF0.36671
aa(lp154
F0.64357
aF0.45203
aF0.36511
aa(lp155
F0.64251
aF0.44831
aF0.36351
aa(lp156
F0.64144
aF0.4446
aF0.36192
aa(lp157
F0.64038
aF0.44086
aF0.36031
aa(lp158
F0.63932
aF0.43715
aF0.35872
aa(lp159
F0.63825
aF0.43342
aF0.35714
aa(lp160
F0.63719
aF0.4297
aF0.35554
aa(lp161
F0.63612
aF0.42597
aF0.35392
aa(lp162
F0.63505
aF0.42223
aF0.35232
aa(lp163
F0.63399
aF0.4185
aF0.35073
aa(lp164
F0.63292
aF0.41477
aF0.34912
aa(lp165
F0.63185
aF0.41104
aF0.34752
aa(lp166
F0.63078
aF0.40729
aF0.3459
aa(lp167
F0.62971
aF0.40355
aF0.34429
aa(lp168
F0.62864
aF0.39979
aF0.3427
aa(lp169
F0.62756
aF0.39605
aF0.34108
aa(lp170
F0.62649
aF0.39229
aF0.33948
aa(lp171
F0.62541
aF0.38853
aF0.33785
aa(lp172
F0.62434
aF0.38476
aF0.33623
aa(lp173
F0.62326
aF0.381
aF0.33463
aa(lp174
F0.62216
aF0.37721
aF0.333
aa(lp175
F0.62108
aF0.37342
aF0.33135
aa(lp176
F0.61999
aF0.36962
aF0.32973
aa(lp177
F0.61888
aF0.36583
aF0.32807
aa(lp178
F0.61775
aF0.36201
aF0.32639
aa(lp179
F0.61661
aF0.35818
aF0.32471
aa(lp180
F0.61543
aF0.35434
aF0.32302
aa(lp181
F0.61423
aF0.35048
aF0.32128
aa(lp182
F0.61299
aF0.34659
aF0.31951
aa(lp183
F0.61169
aF0.3427
aF0.31768
aa(lp184
F0.61032
aF0.33875
aF0.31581
aa(lp185
F0.60888
aF0.3348
aF0.31384
aa(lp186
F0.60732
aF0.33077
aF0.31178
aa(lp187
F0.60564
aF0.32673
aF0.30966
aa(lp188
F0.60385
aF0.32266
aF0.30737
aa(lp189
F0.60188
aF0.31851
aF0.30498
aa(lp190
F0.59975
aF0.31432
aF0.30242
aa(lp191
F0.59743
aF0.31009
aF0.29972
aa(lp192
F0.59491
aF0.30579
aF0.29685
aa(lp193
F0.5922
aF0.30141
aF0.29378
aa(lp194
F0.58925
aF0.29702
aF0.29054
aa(lp195
F0.58611
aF0.29254
aF0.28712
aa(lp196
F0.58275
aF0.28801
aF0.28354
aa(lp197
F0.5792
aF0.28346
aF0.27978
aa(lp198
F0.57546
aF0.27886
aF0.27587
aa(lp199
F0.57154
aF0.2742
aF0.27176
aa(lp200
F0.56747
aF0.26953
aF0.26756
aa(lp201
F0.56325
aF0.26481
aF0.26327
aa(lp202
F0.55891
aF0.26009
aF0.25884
aa(lp203
F0.55448
aF0.25535
aF0.25434
aa(lp204
F0.54996
aF0.25057
aF0.24974
aa(lp205
F0.54538
aF0.2458
aF0.24511
aa(lp206
F0.54073
aF0.24103
aF0.24043
aa(lp207
F0.53605
aF0.23627
aF0.23575
aa(lp208
F0.53134
aF0.2315
aF0.23101
aa(lp209
F0.52661
aF0.22672
aF0.22627
aa(lp210
F0.52185
aF0.22192
aF0.2215
aa(lp211
F0.51711
aF0.21717
aF0.21674
aa(lp212
F0.51234
aF0.2124
aF0.21197
aa(lp213
F0.50758
aF0.20764
aF0.20719
aa(lp214
F0.5028
aF0.20287
aF0.2024
aa(lp215
F0.49805
aF0.19812
aF0.19763
aa(lp216
F0.49328
aF0.19339
aF0.19287
aa(lp217
F0.48853
aF0.18865
aF0.18813
aa(lp218
F0.48377
aF0.1839
aF0.18334
aa(lp219
F0.47903
aF0.17918
aF0.17861
aa(lp220
F0.47428
aF0.17447
aF0.17384
aa(lp221
F0.46955
aF0.16976
aF0.16913
aa(lp222
F0.46481
aF0.16502
aF0.16438
aa(lp223
F0.46007
aF0.16031
aF0.15961
aa(lp224
F0.45535
aF0.15565
aF0.15489
aa(lp225
F0.45062
aF0.15094
aF0.15019
aa(lp226
F0.44588
aF0.14626
aF0.14549
aa(lp227
F0.44116
aF0.14159
aF0.14077
aa(lp228
F0.43644
aF0.1369
aF0.13601
aa(lp229
F0.43171
aF0.13223
aF0.13137
aa(lp230
F0.42697
aF0.12754
aF0.12667
aa(lp231
F0.42222
aF0.12285
aF0.12198
aa(lp232
F0.41748
aF0.11823
aF0.11735
aa(lp233
F0.41272
aF0.11356
aF0.11278
aa(lp234
F0.40793
aF0.10884
aF0.10813
aa(lp235
F0.40314
aF0.10414
aF0.10363
aa(lp236
F0.39832
aF0.09944
aF0.099083
aa(lp237
F0.39348
aF0.09477
aF0.094669
aa(lp238
F0.38861
aF0.089992
aF0.090238
aa(lp239
F0.38372
aF0.085185
aF0.085844
aa(lp240
F0.37878
aF0.080381
aF0.081686
aa(lp241
F0.37383
aF0.075514
aF0.077428
aa(lp242
F0.36887
aF0.070613
aF0.073318
aa(lp243
F0.36388
aF0.065614
aF0.06898
aa(lp244
F0.3589
aF0.060535
aF0.064414
aa(lp245
F0.35393
aF0.0553
aF0.059821
aa(lp246
F0.34897
aF0.049976
aF0.054897
aa(lp247
F0.344
aF0.044477
aF0.049905
aa(lp248
F0.33908
aF0.03876
aF0.044673
aa(lp249
F0.33417
aF0.032918
aF0.039134
aa(lp250
F0.3293
aF0.027484
aF0.033352
aa(lp251
F0.32444
aF0.022278
aF0.027907
aa(lp252
F0.31965
aF0.017287
aF0.022577
aa(lp253
F0.31488
aF0.012516
aF0.017358
aa(lp254
F0.3102
aF0.0077301
aF0.012265
aa(lp255
F0.30554
aF0.0033505
aF0.0070111
aa(lp256
F0.30092
aI0
aF0.0020527
aa.