(lp0
(lp1
F0.17092
aF0.10034
aF0.29979
aa(lp2
F0.17054
aF0.10566
aF0.30496
aa(lp3
F0.17013
aF0.11095
aF0.31016
aa(lp4
F0.16969
aF0.11619
aF0.31534
aa(lp5
F0.16921
aF0.12135
aF0.32054
aa(lp6
F0.16868
aF0.12657
aF0.32572
aa(lp7
F0.16812
aF0.13177
aF0.33092
aa(lp8
F0.16758
aF0.13694
aF0.33614
aa(lp9
F0.16702
aF0.14212
aF0.34136
aa(lp10
F0.16641
aF0.1473
aF0.34658
aa(lp11
F0.16579
aF0.15246
aF0.3518
aa(lp12
F0.16518
aF0.15766
aF0.35706
aa(lp13
F0.16459
aF0.16288
aF0.3623
aa(lp14
F0.16399
aF0.16806
aF0.36754
aa(lp15
F0.16335
aF0.17329
aF0.37281
aa(lp16
F0.16272
aF0.17855
aF0.3781
aa(lp17
F0.16209
aF0.18378
aF0.3834
aa(lp18
F0.16146
aF0.18906
aF0.3887
aa(lp19
F0.16078
aF0.19437
aF0.39402
aa(lp20
F0.16011
aF0.19963
aF0.39936
aa(lp21
F0.15948
aF0.20498
aF0.40472
aa(lp22
F0.15886
aF0.21033
aF0.41011
aa(lp23
F0.15821
aF0.21571
aF0.4155
aa(lp24
F0.15753
aF0.22112
aF0.42092
aa(lp25
F0.15689
aF0.22653
aF0.42636
aa(lp26
F0.15625
aF0.23198
aF0.43184
aa(lp27
F0.15557
aF0.23745
aF0.43732
aa(lp28
F0.1549
aF0.24291
aF0.44283
aa(lp29
F0.15424
aF0.24844
aF0.44837
aa(lp30
F0.15358
aF0.25396
aF0.45394
aa(lp31
F0.15294
aF0.25951
aF0.45954
aa(lp32
F0.15231
aF0.26506
aF0.46517
aa(lp33
F0.1517
aF0.27065
aF0.47085
aa(lp34
F0.15113
aF0.27624
aF0.47657
aa(lp35
F0.1506
aF0.28181
aF0.48233
aa(lp36
F0.15013
aF0.28738
aF0.48815
aa(lp37
F0.14972
aF0.29295
aF0.49402
aa(lp38
F0.14938
aF0.29849
aF0.49995
aa(lp39
F0.14915
aF0.304
aF0.50596
aa(lp40
F0.14907
aF0.30948
aF0.51206
aa(lp41
F0.14915
aF0.31486
aF0.51824
aa(lp42
F0.14943
aF0.32021
aF0.5245
aa(lp43
F0.14991
aF0.32543
aF0.53086
aa(lp44
F0.1506
aF0.33059
aF0.53733
aa(lp45
F0.15155
aF0.33564
aF0.54388
aa(lp46
F0.15278
aF0.34057
aF0.55055
aa(lp47
F0.15429
aF0.34537
aF0.55732
aa(lp48
F0.15611
aF0.35006
aF0.56418
aa(lp49
F0.15816
aF0.35463
aF0.57113
aa(lp50
F0.16045
aF0.35905
aF0.57817
aa(lp51
F0.16306
aF0.36337
aF0.5853
aa(lp52
F0.16582
aF0.36758
aF0.5925
aa(lp53
F0.16887
aF0.3717
aF0.59976
aa(lp54
F0.17203
aF0.37572
aF0.60709
aa(lp55
F0.17539
aF0.37967
aF0.61446
aa(lp56
F0.17888
aF0.38356
aF0.62188
aa(lp57
F0.18245
aF0.38737
aF0.62933
aa(lp58
F0.18617
aF0.39117
aF0.63682
aa(lp59
F0.18993
aF0.39491
aF0.64431
aa(lp60
F0.19378
aF0.39863
aF0.65181
aa(lp61
F0.19765
aF0.40232
aF0.6593
aa(lp62
F0.20157
aF0.40603
aF0.66677
aa(lp63
F0.20556
aF0.40971
aF0.67421
aa(lp64
F0.20957
aF0.41338
aF0.68158
aa(lp65
F0.21361
aF0.41706
aF0.68887
aa(lp66
F0.2177
aF0.42072
aF0.69604
aa(lp67
F0.22181
aF0.42439
aF0.70306
aa(lp68
F0.22599
aF0.42805
aF0.70989
aa(lp69
F0.23015
aF0.4317
aF0.71649
aa(lp70
F0.23441
aF0.43534
aF0.7228
aa(lp71
F0.23866
aF0.43894
aF0.72879
aa(lp72
F0.24296
aF0.44254
aF0.73441
aa(lp73
F0.24732
aF0.44609
aF0.73962
aa(lp74
F0.2517
aF0.44962
aF0.74437
aa(lp75
F0.25608
aF0.4531
aF0.74864
aa(lp76
F0.26051
aF0.45653
aF0.75241
aa(lp77
F0.26493
aF0.45991
aF0.75566
aa(lp78
F0.26939
aF0.46323
aF0.7584
aa(lp79
F0.27383
aF0.46651
aF0.76062
aa(lp80
F0.27826
aF0.46973
aF0.76236
aa(lp81
F0.28269
aF0.47287
aF0.76364
aa(lp82
F0.28707
aF0.47599
aF0.7645
aa(lp83
F0.29148
aF0.47904
aF0.76498
aa(lp84
F0.29583
aF0.48205
aF0.76511
aa(lp85
F0.30018
aF0.48502
aF0.76495
aa(lp86
F0.3045
aF0.48797
aF0.76455
aa(lp87
F0.30883
aF0.49089
aF0.76393
aa(lp88
F0.31311
aF0.49376
aF0.76315
aa(lp89
F0.3174
aF0.49663
aF0.76223
aa(lp90
F0.32167
aF0.49949
aF0.76121
aa(lp91
F0.32593
aF0.50235
aF0.7601
aa(lp92
F0.33021
aF0.50519
aF0.75893
aa(lp93
F0.33448
aF0.50804
aF0.75772
aa(lp94
F0.33874
aF0.51087
aF0.75647
aa(lp95
F0.34302
aF0.51372
aF0.7552
aa(lp96
F0.34729
aF0.51656
aF0.75391
aa(lp97
F0.35156
aF0.51941
aF0.7526
aa(lp98
F0.35586
aF0.52225
aF0.7513
aa(lp99
F0.36014
aF0.5251
aF0.74997
aa(lp100
F0.36444
aF0.52796
aF0.74866
aa(lp101
F0.36875
aF0.53082
aF0.74734
aa(lp102
F0.37306
aF0.53368
aF0.74601
aa(lp103
F0.37738
aF0.53657
aF0.74469
aa(lp104
F0.38171
aF0.53943
aF0.74336
aa(lp105
F0.38603
aF0.54232
aF0.74203
aa(lp106
F0.39038
aF0.54521
aF0.7407
aa(lp107
F0.39473
aF0.5481
aF0.73938
aa(lp108
F0.39908
aF0.55099
aF0.73803
aa(lp109
F0.40346
aF0.55388
aF0.7367
aa(lp110
F0.40782
aF0.55679
aF0.73536
aa(lp111
F0.4122
aF0.5597
aF0.73402
aa(lp112
F0.41658
aF0.56261
aF0.73268
aa(lp113
F0.42096
aF0.56551
aF0.73133
aa(lp114
F0.42537
aF0.56844
aF0.72999
aa(lp115
F0.42977
aF0.57136
aF0.72864
aa(lp116
F0.43417
aF0.57429
aF0.72729
aa(lp117
F0.43859
aF0.57722
aF0.72594
aa(lp118
F0.44302
aF0.58016
aF0.72458
aa(lp119
F0.44743
aF0.58309
aF0.72322
aa(lp120
F0.45188
aF0.58604
aF0.72187
aa(lp121
F0.45631
aF0.58898
aF0.72051
aa(lp122
F0.46075
aF0.59194
aF0.71915
aa(lp123
F0.46521
aF0.59489
aF0.71779
aa(lp124
F0.46968
aF0.59785
aF0.71643
aa(lp125
F0.47413
aF0.60081
aF0.71506
aa(lp126
F0.4786
aF0.60378
aF0.71369
aa(lp127
F0.48307
aF0.60675
aF0.71232
aa(lp128
F0.48756
aF0.60972
aF0.71095
aa(lp129
F0.49205
aF0.61269
aF0.70958
aa(lp130
F0.49653
aF0.61567
aF0.7082
aa(lp131
F0.50104
aF0.61867
aF0.70683
aa(lp132
F0.50553
aF0.62164
aF0.70545
aa(lp133
F0.51004
aF0.62464
aF0.70407
aa(lp134
F0.51456
aF0.62763
aF0.70269
aa(lp135
F0.51908
aF0.63063
aF0.70131
aa(lp136
F0.5236
aF0.63363
aF0.69992
aa(lp137
F0.52813
aF0.63664
aF0.69854
aa(lp138
F0.53267
aF0.63964
aF0.69715
aa(lp139
F0.53721
aF0.64265
aF0.69577
aa(lp140
F0.54174
aF0.64566
aF0.69437
aa(lp141
F0.5463
aF0.64868
aF0.69299
aa(lp142
F0.55085
aF0.65171
aF0.69159
aa(lp143
F0.55541
aF0.65472
aF0.6902
aa(lp144
F0.55998
aF0.65776
aF0.68881
aa(lp145
F0.56455
aF0.66078
aF0.6874
aa(lp146
F0.56912
aF0.66382
aF0.68601
aa(lp147
F0.5737
aF0.66685
aF0.6846
aa(lp148
F0.57828
aF0.6699
aF0.68321
aa(lp149
F0.58287
aF0.67294
aF0.6818
aa(lp150
F0.58747
aF0.67598
aF0.68039
aa(lp151
F0.59208
aF0.67903
aF0.67899
aa(lp152
F0.59668
aF0.68208
aF0.67759
aa(lp153
F0.60129
aF0.68514
aF0.67618
aa(lp154
F0.6059
aF0.6882
aF0.67476
aa(lp155
F0.61053
aF0.69125
aF0.67336
aa(lp156
F0.61515
aF0.69432
aF0.67194
aa(lp157
F0.61979
aF0.69739
aF0.67053
aa(lp158
F0.62442
aF0.70046
aF0.66911
aa(lp159
F0.62906
aF0.70354
aF0.6677
aa(lp160
F0.63371
aF0.70662
aF0.66627
aa(lp161
F0.63836
aF0.7097
aF0.66485
aa(lp162
F0.64301
aF0.71278
aF0.66344
aa(lp163
F0.64767
aF0.71587
aF0.66201
aa(lp164
F0.65234
aF0.71896
aF0.66058
aa(lp165
F0.65702
aF0.72205
aF0.65915
aa(lp166
F0.6617
aF0.72516
aF0.65773
aa(lp167
F0.66637
aF0.72825
aF0.6563
aa(lp168
F0.67106
aF0.73136
aF0.65486
aa(lp169
F0.67575
aF0.73447
aF0.65343
aa(lp170
F0.68045
aF0.73758
aF0.652
aa(lp171
F0.68516
aF0.74069
aF0.65056
aa(lp172
F0.68986
aF0.74381
aF0.64913
aa(lp173
F0.69457
aF0.74693
aF0.64768
aa(lp174
F0.69929
aF0.75005
aF0.64624
aa(lp175
F0.70402
aF0.75318
aF0.6448
aa(lp176
F0.70876
aF0.75632
aF0.64336
aa(lp177
F0.71349
aF0.75945
aF0.64191
aa(lp178
F0.71823
aF0.76259
aF0.64047
aa(lp179
F0.72297
aF0.76574
aF0.63902
aa(lp180
F0.72773
aF0.76888
aF0.63757
aa(lp181
F0.73249
aF0.77203
aF0.63612
aa(lp182
F0.73725
aF0.77518
aF0.63466
aa(lp183
F0.74202
aF0.77834
aF0.63321
aa(lp184
F0.7468
aF0.78151
aF0.63175
aa(lp185
F0.75159
aF0.78468
aF0.63031
aa(lp186
F0.75637
aF0.78785
aF0.62887
aa(lp187
F0.76117
aF0.79103
aF0.62745
aa(lp188
F0.76597
aF0.79422
aF0.62605
aa(lp189
F0.77078
aF0.79741
aF0.62468
aa(lp190
F0.77558
aF0.80062
aF0.62337
aa(lp191
F0.7804
aF0.80383
aF0.6221
aa(lp192
F0.78521
aF0.80706
aF0.62094
aa(lp193
F0.79002
aF0.81029
aF0.61988
aa(lp194
F0.79482
aF0.81354
aF0.61896
aa(lp195
F0.79961
aF0.81681
aF0.61821
aa(lp196
F0.80438
aF0.82008
aF0.61768
aa(lp197
F0.80913
aF0.82338
aF0.61741
aa(lp198
F0.81385
aF0.82668
aF0.61744
aa(lp199
F0.81852
aF0.82999
aF0.61781
aa(lp200
F0.82314
aF0.83331
aF0.61859
aa(lp201
F0.8277
aF0.83663
aF0.61979
aa(lp202
F0.83219
aF0.83996
aF0.62145
aa(lp203
F0.83658
aF0.84327
aF0.62362
aa(lp204
F0.84089
aF0.84657
aF0.62629
aa(lp205
F0.84508
aF0.84986
aF0.62948
aa(lp206
F0.84917
aF0.85312
aF0.6332
aa(lp207
F0.85313
aF0.85635
aF0.63742
aa(lp208
F0.85698
aF0.85956
aF0.64212
aa(lp209
F0.86072
aF0.86273
aF0.64728
aa(lp210
F0.86433
aF0.86586
aF0.65284
aa(lp211
F0.86784
aF0.86897
aF0.65878
aa(lp212
F0.87124
aF0.87203
aF0.66505
aa(lp213
F0.87455
aF0.87506
aF0.67161
aa(lp214
F0.87777
aF0.87807
aF0.6784
aa(lp215
F0.88092
aF0.88105
aF0.68539
aa(lp216
F0.88401
aF0.88401
aF0.69255
aa(lp217
F0.88705
aF0.88694
aF0.69982
aa(lp218
F0.89004
aF0.88986
aF0.7072
aa(lp219
F0.893
aF0.89277
aF0.71466
aa(lp220
F0.89594
aF0.89566
aF0.72217
aa(lp221
F0.89885
aF0.89855
aF0.72974
aa(lp222
F0.90175
aF0.90144
aF0.73733
aa(lp223
F0.90465
aF0.90431
aF0.74495
aa(lp224
F0.90753
aF0.9072
aF0.75258
aa(lp225
F0.91041
aF0.91007
aF0.76023
aa(lp226
F0.91329
aF0.91295
aF0.76789
aa(lp227
F0.91615
aF0.91582
aF0.77555
aa(lp228
F0.91903
aF0.9187
aF0.78322
aa(lp229
F0.92191
aF0.92158
aF0.79089
aa(lp230
F0.92478
aF0.92445
aF0.79857
aa(lp231
F0.92766
aF0.92733
aF0.80625
aa(lp232
F0.93055
aF0.93022
aF0.81393
aa(lp233
F0.93342
aF0.9331
aF0.82162
aa(lp234
F0.93632
aF0.93599
aF0.82932
aa(lp235
F0.9392
aF0.93888
aF0.83701
aa(lp236
F0.94209
aF0.94177
aF0.84472
aa(lp237
F0.94498
aF0.94466
aF0.85243
aa(lp238
F0.94787
aF0.94756
aF0.86014
aa(lp239
F0.95076
aF0.95045
aF0.86786
aa(lp240
F0.95366
aF0.95335
aF0.87558
aa(lp241
F0.95655
aF0.95625
aF0.88331
aa(lp242
F0.95945
aF0.95915
aF0.89105
aa(lp243
F0.96235
aF0.96205
aF0.89879
aa(lp244
F0.96526
aF0.96496
aF0.90654
aa(lp245
F0.96816
aF0.96787
aF0.91429
aa(lp246
F0.97107
aF0.97078
aF0.92205
aa(lp247
F0.97397
aF0.97369
aF0.92981
aa(lp248
F0.97688
aF0.9766
aF0.93759
aa(lp249
F0.97979
aF0.97952
aF0.94537
aa(lp250
F0.9827
aF0.98244
aF0.95315
aa(lp251
F0.98561
aF0.98536
aF0.96094
aa(lp252
F0.98851
aF0.98828
aF0.96874
aa(lp253
F0.99142
aF0.99121
aF0.97654
aa(lp254
F0.99432
aF0.99413
aF0.98435
aa(lp255
F0.99722
aF0.99706
aF0.99217
aa(lp256
I1
aF0.99999
aF0.99999
aa.