(lp0
(lp1
F0.10144
aF0.20011
aF0.70019
aa(lp2
F0.10328
aF0.20301
aF0.69881
aa(lp3
F0.10496
aF0.2059
aF0.69742
aa(lp4
F0.10673
aF0.20873
aF0.69605
aa(lp5
F0.1083
aF0.21157
aF0.69466
aa(lp6
F0.10998
aF0.21437
aF0.69329
aa(lp7
F0.11152
aF0.21716
aF0.69191
aa(lp8
F0.11307
aF0.21994
aF0.69053
aa(lp9
F0.1145
aF0.2227
aF0.68917
aa(lp10
F0.11603
aF0.22544
aF0.6878
aa(lp11
F0.11744
aF0.22819
aF0.68643
aa(lp12
F0.11891
aF0.23089
aF0.68508
aa(lp13
F0.12028
aF0.23359
aF0.68371
aa(lp14
F0.12166
aF0.23631
aF0.68236
aa(lp15
F0.12304
aF0.23898
aF0.68101
aa(lp16
F0.12442
aF0.24167
aF0.67966
aa(lp17
F0.12581
aF0.24432
aF0.67832
aa(lp18
F0.12711
aF0.247
aF0.67698
aa(lp19
F0.12847
aF0.24964
aF0.67564
aa(lp20
F0.12983
aF0.2523
aF0.67431
aa(lp21
F0.13114
aF0.25495
aF0.67298
aa(lp22
F0.13245
aF0.25757
aF0.67165
aa(lp23
F0.13376
aF0.2602
aF0.67033
aa(lp24
F0.13507
aF0.26282
aF0.669
aa(lp25
F0.13633
aF0.26543
aF0.66768
aa(lp26
F0.13768
aF0.26803
aF0.66636
aa(lp27
F0.13894
aF0.27067
aF0.66505
aa(lp28
F0.14023
aF0.27326
aF0.66374
aa(lp29
F0.14154
aF0.27587
aF0.66243
aa(lp30
F0.14282
aF0.27845
aF0.66112
aa(lp31
F0.14411
aF0.28103
aF0.65982
aa(lp32
F0.14542
aF0.28363
aF0.65851
aa(lp33
F0.14665
aF0.2862
aF0.65721
aa(lp34
F0.14795
aF0.2888
aF0.65591
aa(lp35
F0.14923
aF0.29139
aF0.65461
aa(lp36
F0.1505
aF0.29395
aF0.65331
aa(lp37
F0.15176
aF0.29654
aF0.65202
aa(lp38
F0.15303
aF0.29912
aF0.65072
aa(lp39
F0.15432
aF0.30167
aF0.64943
aa(lp40
F0.15561
aF0.30425
aF0.64813
aa(lp41
F0.15688
aF0.30683
aF0.64684
aa(lp42
F0.15816
aF0.30941
aF0.64554
aa(lp43
F0.15942
aF0.31195
aF0.64425
aa(lp44
F0.16069
aF0.31453
aF0.64296
aa(lp45
F0.162
aF0.31711
aF0.64166
aa(lp46
F0.16327
aF0.31968
aF0.64038
aa(lp47
F0.16454
aF0.32224
aF0.63908
aa(lp48
F0.16579
aF0.3248
aF0.63778
aa(lp49
F0.16711
aF0.32737
aF0.63649
aa(lp50
F0.16838
aF0.32995
aF0.63519
aa(lp51
F0.16969
aF0.33252
aF0.63389
aa(lp52
F0.17096
aF0.33508
aF0.63258
aa(lp53
F0.17225
aF0.33763
aF0.63128
aa(lp54
F0.17355
aF0.3402
aF0.62996
aa(lp55
F0.17488
aF0.34276
aF0.62865
aa(lp56
F0.17615
aF0.34531
aF0.62732
aa(lp57
F0.17752
aF0.34788
aF0.62599
aa(lp58
F0.17884
aF0.35043
aF0.62466
aa(lp59
F0.18016
aF0.35298
aF0.62331
aa(lp60
F0.1815
aF0.35554
aF0.62195
aa(lp61
F0.18287
aF0.35807
aF0.62059
aa(lp62
F0.18426
aF0.3606
aF0.61922
aa(lp63
F0.18569
aF0.36314
aF0.61782
aa(lp64
F0.18708
aF0.36567
aF0.61641
aa(lp65
F0.18851
aF0.36819
aF0.61498
aa(lp66
F0.18994
aF0.37069
aF0.61354
aa(lp67
F0.19141
aF0.3732
aF0.61208
aa(lp68
F0.19291
aF0.37569
aF0.61061
aa(lp69
F0.19445
aF0.37818
aF0.60911
aa(lp70
F0.19597
aF0.38066
aF0.60758
aa(lp71
F0.19753
aF0.38312
aF0.60602
aa(lp72
F0.1991
aF0.38556
aF0.60446
aa(lp73
F0.20072
aF0.388
aF0.60285
aa(lp74
F0.20237
aF0.39043
aF0.60122
aa(lp75
F0.20408
aF0.39284
aF0.59957
aa(lp76
F0.20577
aF0.39524
aF0.59788
aa(lp77
F0.2075
aF0.39762
aF0.59617
aa(lp78
F0.20925
aF0.39999
aF0.59443
aa(lp79
F0.21105
aF0.40234
aF0.59266
aa(lp80
F0.21285
aF0.40469
aF0.59085
aa(lp81
F0.2147
aF0.40702
aF0.58902
aa(lp82
F0.21659
aF0.40934
aF0.58717
aa(lp83
F0.21847
aF0.41164
aF0.5853
aa(lp84
F0.22041
aF0.41394
aF0.58339
aa(lp85
F0.22233
aF0.41622
aF0.58145
aa(lp86
F0.22427
aF0.41849
aF0.57951
aa(lp87
F0.22629
aF0.42075
aF0.57752
aa(lp88
F0.2283
aF0.423
aF0.57553
aa(lp89
F0.23029
aF0.42526
aF0.57351
aa(lp90
F0.23235
aF0.42751
aF0.57147
aa(lp91
F0.23442
aF0.42974
aF0.56941
aa(lp92
F0.23649
aF0.43198
aF0.56735
aa(lp93
F0.23856
aF0.43419
aF0.56526
aa(lp94
F0.24066
aF0.43643
aF0.56318
aa(lp95
F0.24278
aF0.43865
aF0.56106
aa(lp96
F0.24491
aF0.44088
aF0.55895
aa(lp97
F0.24707
aF0.44313
aF0.55684
aa(lp98
F0.24923
aF0.44536
aF0.55471
aa(lp99
F0.25141
aF0.44759
aF0.55258
aa(lp100
F0.25359
aF0.44985
aF0.55045
aa(lp101
F0.25578
aF0.45212
aF0.54832
aa(lp102
F0.25799
aF0.45438
aF0.54619
aa(lp103
F0.26024
aF0.45666
aF0.54406
aa(lp104
F0.26249
aF0.45896
aF0.54194
aa(lp105
F0.26475
aF0.46126
aF0.53983
aa(lp106
F0.26703
aF0.46359
aF0.53775
aa(lp107
F0.26936
aF0.46593
aF0.53565
aa(lp108
F0.27167
aF0.4683
aF0.53358
aa(lp109
F0.27404
aF0.4707
aF0.53154
aa(lp110
F0.27644
aF0.47311
aF0.52952
aa(lp111
F0.27885
aF0.47557
aF0.52751
aa(lp112
F0.28127
aF0.47804
aF0.52553
aa(lp113
F0.28375
aF0.48054
aF0.52358
aa(lp114
F0.28625
aF0.48309
aF0.52165
aa(lp115
F0.28882
aF0.48567
aF0.51977
aa(lp116
F0.29141
aF0.48829
aF0.51792
aa(lp117
F0.29401
aF0.49095
aF0.5161
aa(lp118
F0.29669
aF0.49364
aF0.51433
aa(lp119
F0.2994
aF0.49638
aF0.51259
aa(lp120
F0.30213
aF0.49917
aF0.5109
aa(lp121
F0.30494
aF0.502
aF0.50925
aa(lp122
F0.30776
aF0.50487
aF0.50764
aa(lp123
F0.31067
aF0.5078
aF0.50607
aa(lp124
F0.31359
aF0.51076
aF0.50456
aa(lp125
F0.31656
aF0.51377
aF0.50307
aa(lp126
F0.31958
aF0.51683
aF0.50165
aa(lp127
F0.32265
aF0.51992
aF0.50025
aa(lp128
F0.32573
aF0.52308
aF0.4989
aa(lp129
F0.3289
aF0.52626
aF0.4976
aa(lp130
F0.33208
aF0.52949
aF0.49631
aa(lp131
F0.33532
aF0.53276
aF0.49508
aa(lp132
F0.33856
aF0.53606
aF0.49387
aa(lp133
F0.34187
aF0.5394
aF0.49269
aa(lp134
F0.34521
aF0.54278
aF0.49157
aa(lp135
F0.34858
aF0.54619
aF0.49045
aa(lp136
F0.35197
aF0.54963
aF0.48934
aa(lp137
F0.35542
aF0.55309
aF0.48829
aa(lp138
F0.35885
aF0.5566
aF0.48724
aa(lp139
F0.36235
aF0.56012
aF0.4862
aa(lp140
F0.36585
aF0.56367
aF0.48519
aa(lp141
F0.36938
aF0.56724
aF0.48419
aa(lp142
F0.37293
aF0.57082
aF0.4832
aa(lp143
F0.37652
aF0.57443
aF0.48223
aa(lp144
F0.3801
aF0.57806
aF0.48125
aa(lp145
F0.38371
aF0.58171
aF0.4803
aa(lp146
F0.38733
aF0.58538
aF0.47934
aa(lp147
F0.39098
aF0.58905
aF0.47839
aa(lp148
F0.39463
aF0.59275
aF0.47744
aa(lp149
F0.39831
aF0.59645
aF0.4765
aa(lp150
F0.40198
aF0.60017
aF0.47556
aa(lp151
F0.40569
aF0.60391
aF0.47462
aa(lp152
F0.4094
aF0.60765
aF0.47366
aa(lp153
F0.41313
aF0.6114
aF0.47272
aa(lp154
F0.41686
aF0.61516
aF0.47179
aa(lp155
F0.4206
aF0.61895
aF0.47084
aa(lp156
F0.42436
aF0.62273
aF0.4699
aa(lp157
F0.42813
aF0.62653
aF0.46895
aa(lp158
F0.43192
aF0.63035
aF0.468
aa(lp159
F0.43571
aF0.63417
aF0.46706
aa(lp160
F0.43951
aF0.638
aF0.46609
aa(lp161
F0.44332
aF0.64184
aF0.46514
aa(lp162
F0.44714
aF0.64569
aF0.4642
aa(lp163
F0.45098
aF0.64956
aF0.46322
aa(lp164
F0.45484
aF0.65343
aF0.46226
aa(lp165
F0.45869
aF0.65732
aF0.46131
aa(lp166
F0.46255
aF0.66121
aF0.46033
aa(lp167
F0.46643
aF0.66511
aF0.45937
aa(lp168
F0.47033
aF0.66903
aF0.4584
aa(lp169
F0.47423
aF0.67296
aF0.45742
aa(lp170
F0.47814
aF0.67689
aF0.45645
aa(lp171
F0.48206
aF0.68083
aF0.45547
aa(lp172
F0.48599
aF0.68479
aF0.4545
aa(lp173
F0.48994
aF0.68877
aF0.4535
aa(lp174
F0.4939
aF0.69275
aF0.45253
aa(lp175
F0.49787
aF0.69673
aF0.45153
aa(lp176
F0.50185
aF0.70073
aF0.45054
aa(lp177
F0.50583
aF0.70474
aF0.44955
aa(lp178
F0.50983
aF0.70877
aF0.44855
aa(lp179
F0.51385
aF0.71279
aF0.44754
aa(lp180
F0.51788
aF0.71685
aF0.44654
aa(lp181
F0.5219
aF0.72089
aF0.44553
aa(lp182
F0.52596
aF0.72497
aF0.44454
aa(lp183
F0.53002
aF0.72904
aF0.44352
aa(lp184
F0.53409
aF0.73313
aF0.44251
aa(lp185
F0.53819
aF0.73723
aF0.44149
aa(lp186
F0.54228
aF0.74134
aF0.44047
aa(lp187
F0.5464
aF0.74546
aF0.43945
aa(lp188
F0.55052
aF0.74959
aF0.43843
aa(lp189
F0.55466
aF0.75374
aF0.43741
aa(lp190
F0.55881
aF0.7579
aF0.43638
aa(lp191
F0.563
aF0.76207
aF0.43535
aa(lp192
F0.5672
aF0.76625
aF0.43431
aa(lp193
F0.57141
aF0.77044
aF0.43327
aa(lp194
F0.57565
aF0.77464
aF0.43225
aa(lp195
F0.57992
aF0.77886
aF0.43121
aa(lp196
F0.5842
aF0.78309
aF0.43016
aa(lp197
F0.58853
aF0.78733
aF0.42912
aa(lp198
F0.5929
aF0.79158
aF0.42808
aa(lp199
F0.5973
aF0.79584
aF0.42705
aa(lp200
F0.60174
aF0.80012
aF0.426
aa(lp201
F0.60624
aF0.8044
aF0.42497
aa(lp202
F0.6108
aF0.80869
aF0.42393
aa(lp203
F0.61541
aF0.81299
aF0.42289
aa(lp204
F0.62011
aF0.81731
aF0.42187
aa(lp205
F0.62487
aF0.82163
aF0.42085
aa(lp206
F0.62973
aF0.82595
aF0.41984
aa(lp207
F0.63468
aF0.83028
aF0.41883
aa(lp208
F0.63974
aF0.83461
aF0.41784
aa(lp209
F0.6449
aF0.83894
aF0.41687
aa(lp210
F0.65019
aF0.84326
aF0.41589
aa(lp211
F0.6556
aF0.84759
aF0.41494
aa(lp212
F0.66115
aF0.8519
aF0.41401
aa(lp213
F0.66684
aF0.8562
aF0.4131
aa(lp214
F0.67269
aF0.86048
aF0.41221
aa(lp215
F0.67868
aF0.86474
aF0.41134
aa(lp216
F0.68483
aF0.86898
aF0.41052
aa(lp217
F0.69114
aF0.87318
aF0.4097
aa(lp218
F0.69761
aF0.87735
aF0.40892
aa(lp219
F0.70424
aF0.88148
aF0.40818
aa(lp220
F0.71102
aF0.88557
aF0.40747
aa(lp221
F0.71795
aF0.8896
aF0.4068
aa(lp222
F0.72504
aF0.89358
aF0.40617
aa(lp223
F0.73226
aF0.89751
aF0.40557
aa(lp224
F0.73962
aF0.90138
aF0.40501
aa(lp225
F0.74709
aF0.90518
aF0.40448
aa(lp226
F0.75469
aF0.90892
aF0.40401
aa(lp227
F0.76238
aF0.9126
aF0.40357
aa(lp228
F0.77017
aF0.9162
aF0.40317
aa(lp229
F0.77806
aF0.91975
aF0.4028
aa(lp230
F0.78601
aF0.92323
aF0.40246
aa(lp231
F0.79403
aF0.92664
aF0.40216
aa(lp232
F0.80211
aF0.92999
aF0.40189
aa(lp233
F0.81023
aF0.93328
aF0.40166
aa(lp234
F0.8184
aF0.93653
aF0.40145
aa(lp235
F0.8266
aF0.93971
aF0.40127
aa(lp236
F0.83482
aF0.94285
aF0.40112
aa(lp237
F0.84307
aF0.94593
aF0.40098
aa(lp238
F0.85132
aF0.94898
aF0.40086
aa(lp239
F0.8596
aF0.95199
aF0.40075
aa(lp240
F0.86788
aF0.95497
aF0.40067
aa(lp241
F0.87616
aF0.95791
aF0.40059
aa(lp242
F0.88445
aF0.96083
aF0.40052
aa(lp243
F0.89274
aF0.96371
aF0.40047
aa(lp244
F0.90102
aF0.96658
aF0.40042
aa(lp245
F0.9093
aF0.96943
aF0.40038
aa(lp246
F0.91758
aF0.97226
aF0.40034
aa(lp247
F0.92584
aF0.97507
aF0.40031
aa(lp248
F0.93411
aF0.97788
aF0.40028
aa(lp249
F0.94237
aF0.98067
aF0.40026
aa(lp250
F0.95062
aF0.98345
aF0.40023
aa(lp251
F0.95887
aF0.98623
aF0.40021
aa(lp252
F0.96711
aF0.98899
aF0.40019
aa(lp253
F0.97534
aF0.99175
aF0.40017
aa(lp254
F0.98357
aF0.9945
aF0.40014
aa(lp255
F0.9918
aF0.99724
aF0.40012
aa(lp256
I1
aF0.99999
aF0.40009
aa.