(lp0
(lp1
F0.10275
aF0.048113
aF0.39424
aa(lp2
F0.10411
aF0.054674
aF0.39811
aa(lp3
F0.10546
aF0.060973
aF0.40195
aa(lp4
F0.10682
aF0.067126
aF0.40582
aa(lp5
F0.10803
aF0.073092
aF0.40967
aa(lp6
F0.10934
aF0.078802
aF0.41351
aa(lp7
F0.11054
aF0.084548
aF0.41736
aa(lp8
F0.11172
aF0.090093
aF0.42119
aa(lp9
F0.11289
aF0.095569
aF0.42503
aa(lp10
F0.11397
aF0.10094
aF0.42885
aa(lp11
F0.11505
aF0.10632
aF0.43267
aa(lp12
F0.11618
aF0.11157
aF0.43648
aa(lp13
F0.11718
aF0.11676
aF0.44027
aa(lp14
F0.11826
aF0.12188
aF0.44406
aa(lp15
F0.11924
aF0.12701
aF0.44782
aa(lp16
F0.1202
aF0.13212
aF0.45159
aa(lp17
F0.12116
aF0.13716
aF0.45533
aa(lp18
F0.1221
aF0.14216
aF0.45906
aa(lp19
F0.12304
aF0.14714
aF0.46276
aa(lp20
F0.12397
aF0.15207
aF0.46647
aa(lp21
F0.12488
aF0.15701
aF0.47015
aa(lp22
F0.12581
aF0.16194
aF0.4738
aa(lp23
F0.12666
aF0.16681
aF0.47744
aa(lp24
F0.12754
aF0.17165
aF0.48105
aa(lp25
F0.12841
aF0.17647
aF0.48464
aa(lp26
F0.12926
aF0.1813
aF0.48823
aa(lp27
F0.13016
aF0.18613
aF0.49178
aa(lp28
F0.13099
aF0.1909
aF0.49529
aa(lp29
F0.13182
aF0.19568
aF0.49879
aa(lp30
F0.13267
aF0.20042
aF0.50226
aa(lp31
F0.13351
aF0.20518
aF0.5057
aa(lp32
F0.13437
aF0.20991
aF0.50912
aa(lp33
F0.1352
aF0.21462
aF0.51251
aa(lp34
F0.13601
aF0.21934
aF0.51586
aa(lp35
F0.1369
aF0.22401
aF0.5192
aa(lp36
F0.13779
aF0.22872
aF0.52249
aa(lp37
F0.13864
aF0.23335
aF0.52576
aa(lp38
F0.13948
aF0.23803
aF0.529
aa(lp39
F0.14041
aF0.24266
aF0.53219
aa(lp40
F0.14133
aF0.2473
aF0.53535
aa(lp41
F0.14222
aF0.25192
aF0.53849
aa(lp42
F0.14315
aF0.25652
aF0.54157
aa(lp43
F0.1441
aF0.26112
aF0.54464
aa(lp44
F0.14508
aF0.26571
aF0.54766
aa(lp45
F0.14604
aF0.27029
aF0.55065
aa(lp46
F0.14701
aF0.27483
aF0.5536
aa(lp47
F0.14803
aF0.27939
aF0.55651
aa(lp48
F0.14907
aF0.28391
aF0.55939
aa(lp49
F0.15014
aF0.28844
aF0.56223
aa(lp50
F0.1512
aF0.29295
aF0.56501
aa(lp51
F0.15229
aF0.29746
aF0.56778
aa(lp52
F0.15342
aF0.30193
aF0.57049
aa(lp53
F0.15458
aF0.30643
aF0.57317
aa(lp54
F0.15578
aF0.3109
aF0.57581
aa(lp55
F0.15697
aF0.31534
aF0.5784
aa(lp56
F0.15822
aF0.31979
aF0.58096
aa(lp57
F0.15946
aF0.3242
aF0.58347
aa(lp58
F0.16076
aF0.32863
aF0.58595
aa(lp59
F0.16211
aF0.33304
aF0.58837
aa(lp60
F0.16347
aF0.33742
aF0.59077
aa(lp61
F0.16483
aF0.3418
aF0.59312
aa(lp62
F0.16625
aF0.34615
aF0.59542
aa(lp63
F0.16771
aF0.35053
aF0.59769
aa(lp64
F0.16923
aF0.35487
aF0.59992
aa(lp65
F0.17073
aF0.35918
aF0.6021
aa(lp66
F0.17229
aF0.3635
aF0.60424
aa(lp67
F0.1739
aF0.3678
aF0.60633
aa(lp68
F0.17553
aF0.37209
aF0.6084
aa(lp69
F0.17724
aF0.37638
aF0.61041
aa(lp70
F0.17895
aF0.38065
aF0.61238
aa(lp71
F0.1807
aF0.38489
aF0.61431
aa(lp72
F0.1825
aF0.38914
aF0.61621
aa(lp73
F0.18437
aF0.39336
aF0.61806
aa(lp74
F0.18628
aF0.39759
aF0.61987
aa(lp75
F0.18824
aF0.40178
aF0.62163
aa(lp76
F0.1902
aF0.40599
aF0.62336
aa(lp77
F0.19224
aF0.41018
aF0.62504
aa(lp78
F0.19436
aF0.41434
aF0.62669
aa(lp79
F0.1965
aF0.41849
aF0.6283
aa(lp80
F0.19867
aF0.42263
aF0.62985
aa(lp81
F0.20092
aF0.42677
aF0.63137
aa(lp82
F0.20325
aF0.4309
aF0.63285
aa(lp83
F0.20562
aF0.43501
aF0.63429
aa(lp84
F0.20805
aF0.4391
aF0.63568
aa(lp85
F0.21054
aF0.44319
aF0.63704
aa(lp86
F0.21309
aF0.44725
aF0.63835
aa(lp87
F0.21574
aF0.45132
aF0.63962
aa(lp88
F0.21843
aF0.45536
aF0.64084
aa(lp89
F0.2212
aF0.4594
aF0.64202
aa(lp90
F0.22401
aF0.46341
aF0.64315
aa(lp91
F0.22694
aF0.46742
aF0.64424
aa(lp92
F0.2299
aF0.47141
aF0.64529
aa(lp93
F0.23298
aF0.47539
aF0.6463
aa(lp94
F0.23614
aF0.47935
aF0.64725
aa(lp95
F0.23936
aF0.48328
aF0.64816
aa(lp96
F0.24267
aF0.48722
aF0.64902
aa(lp97
F0.24606
aF0.49114
aF0.64983
aa(lp98
F0.24955
aF0.49502
aF0.65059
aa(lp99
F0.25314
aF0.49889
aF0.6513
aa(lp100
F0.25681
aF0.50273
aF0.65196
aa(lp101
F0.26056
aF0.50656
aF0.65256
aa(lp102
F0.26442
aF0.51037
aF0.6531
aa(lp103
F0.26836
aF0.51416
aF0.6536
aa(lp104
F0.27239
aF0.51792
aF0.65404
aa(lp105
F0.27655
aF0.52164
aF0.65442
aa(lp106
F0.28076
aF0.52535
aF0.65474
aa(lp107
F0.28509
aF0.52903
aF0.655
aa(lp108
F0.28954
aF0.53267
aF0.6552
aa(lp109
F0.29405
aF0.53628
aF0.65534
aa(lp110
F0.29867
aF0.53985
aF0.65542
aa(lp111
F0.30338
aF0.54339
aF0.65543
aa(lp112
F0.30819
aF0.54689
aF0.65537
aa(lp113
F0.31309
aF0.55035
aF0.65525
aa(lp114
F0.31808
aF0.55377
aF0.65506
aa(lp115
F0.32316
aF0.55715
aF0.65481
aa(lp116
F0.32832
aF0.56047
aF0.65448
aa(lp117
F0.33358
aF0.56375
aF0.65409
aa(lp118
F0.3389
aF0.56698
aF0.65363
aa(lp119
F0.3443
aF0.57015
aF0.65309
aa(lp120
F0.34979
aF0.57328
aF0.65249
aa(lp121
F0.35535
aF0.57635
aF0.65182
aa(lp122
F0.36096
aF0.57936
aF0.65108
aa(lp123
F0.36666
aF0.5823
aF0.65026
aa(lp124
F0.37239
aF0.58519
aF0.64938
aa(lp125
F0.3782
aF0.58801
aF0.64842
aa(lp126
F0.38406
aF0.59077
aF0.6474
aa(lp127
F0.38996
aF0.59346
aF0.64631
aa(lp128
F0.39592
aF0.59608
aF0.64514
aa(lp129
F0.4019
aF0.59864
aF0.64392
aa(lp130
F0.40793
aF0.60112
aF0.64264
aa(lp131
F0.41399
aF0.60354
aF0.64128
aa(lp132
F0.42007
aF0.60588
aF0.63987
aa(lp133
F0.42617
aF0.60816
aF0.6384
aa(lp134
F0.43231
aF0.61035
aF0.63687
aa(lp135
F0.43843
aF0.61247
aF0.63528
aa(lp136
F0.44459
aF0.61452
aF0.63364
aa(lp137
F0.45074
aF0.61651
aF0.63194
aa(lp138
F0.45689
aF0.61842
aF0.6302
aa(lp139
F0.46304
aF0.62026
aF0.6284
aa(lp140
F0.46921
aF0.62201
aF0.62656
aa(lp141
F0.47536
aF0.62371
aF0.62468
aa(lp142
F0.48148
aF0.62533
aF0.62275
aa(lp143
F0.48761
aF0.62688
aF0.62079
aa(lp144
F0.49372
aF0.62837
aF0.6188
aa(lp145
F0.4998
aF0.62979
aF0.61676
aa(lp146
F0.50587
aF0.63115
aF0.61469
aa(lp147
F0.51193
aF0.63244
aF0.6126
aa(lp148
F0.51796
aF0.63367
aF0.61048
aa(lp149
F0.52397
aF0.63484
aF0.60834
aa(lp150
F0.52995
aF0.63596
aF0.60617
aa(lp151
F0.5359
aF0.63702
aF0.60399
aa(lp152
F0.54182
aF0.63803
aF0.60178
aa(lp153
F0.54773
aF0.63898
aF0.59957
aa(lp154
F0.5536
aF0.63989
aF0.59735
aa(lp155
F0.55945
aF0.64075
aF0.59511
aa(lp156
F0.56526
aF0.64157
aF0.59287
aa(lp157
F0.57106
aF0.64235
aF0.59061
aa(lp158
F0.57684
aF0.64308
aF0.58836
aa(lp159
F0.58257
aF0.64378
aF0.58612
aa(lp160
F0.58829
aF0.64445
aF0.58386
aa(lp161
F0.59399
aF0.64509
aF0.58162
aa(lp162
F0.59967
aF0.64571
aF0.57939
aa(lp163
F0.60532
aF0.6463
aF0.57717
aa(lp164
F0.61096
aF0.64687
aF0.57495
aa(lp165
F0.61659
aF0.64742
aF0.57277
aa(lp166
F0.62219
aF0.64795
aF0.57058
aa(lp167
F0.6278
aF0.64847
aF0.56844
aa(lp168
F0.63339
aF0.649
aF0.56632
aa(lp169
F0.63897
aF0.64951
aF0.56423
aa(lp170
F0.64456
aF0.65002
aF0.56217
aa(lp171
F0.65015
aF0.65054
aF0.56015
aa(lp172
F0.65575
aF0.65107
aF0.55817
aa(lp173
F0.66135
aF0.65162
aF0.55624
aa(lp174
F0.66697
aF0.65218
aF0.55438
aa(lp175
F0.67262
aF0.65276
aF0.55257
aa(lp176
F0.67828
aF0.65338
aF0.55083
aa(lp177
F0.68397
aF0.65403
aF0.54917
aa(lp178
F0.68971
aF0.65473
aF0.54758
aa(lp179
F0.69549
aF0.65548
aF0.5461
aa(lp180
F0.70131
aF0.65628
aF0.54471
aa(lp181
F0.70719
aF0.65715
aF0.54343
aa(lp182
F0.71313
aF0.65808
aF0.54227
aa(lp183
F0.71914
aF0.6591
aF0.54124
aa(lp184
F0.72523
aF0.66021
aF0.54037
aa(lp185
F0.73139
aF0.66141
aF0.53965
aa(lp186
F0.73765
aF0.66273
aF0.53911
aa(lp187
F0.74401
aF0.66416
aF0.53876
aa(lp188
F0.75046
aF0.66571
aF0.53861
aa(lp189
F0.75701
aF0.66741
aF0.53868
aa(lp190
F0.76368
aF0.66925
aF0.53898
aa(lp191
F0.77045
aF0.67125
aF0.53952
aa(lp192
F0.77735
aF0.67341
aF0.54035
aa(lp193
F0.78435
aF0.67575
aF0.54145
aa(lp194
F0.79145
aF0.67827
aF0.54287
aa(lp195
F0.79867
aF0.68098
aF0.54459
aa(lp196
F0.80599
aF0.68389
aF0.54664
aa(lp197
F0.81339
aF0.687
aF0.54903
aa(lp198
F0.82088
aF0.6903
aF0.55178
aa(lp199
F0.82843
aF0.69381
aF0.55487
aa(lp200
F0.83602
aF0.69753
aF0.55833
aa(lp201
F0.84364
aF0.70144
aF0.56217
aa(lp202
F0.85128
aF0.70555
aF0.56636
aa(lp203
F0.85889
aF0.70985
aF0.57091
aa(lp204
F0.86647
aF0.71431
aF0.57583
aa(lp205
F0.87397
aF0.71895
aF0.58107
aa(lp206
F0.88139
aF0.72374
aF0.58665
aa(lp207
F0.88868
aF0.72866
aF0.59255
aa(lp208
F0.89582
aF0.73371
aF0.59872
aa(lp209
F0.90279
aF0.73886
aF0.60518
aa(lp210
F0.90955
aF0.74408
aF0.61188
aa(lp211
F0.9161
aF0.74938
aF0.61881
aa(lp212
F0.92241
aF0.75473
aF0.62592
aa(lp213
F0.92846
aF0.7601
aF0.6332
aa(lp214
F0.93423
aF0.7655
aF0.64063
aa(lp215
F0.93973
aF0.77089
aF0.64818
aa(lp216
F0.94494
aF0.77626
aF0.65583
aa(lp217
F0.94984
aF0.78161
aF0.66355
aa(lp218
F0.95446
aF0.78691
aF0.67131
aa(lp219
F0.95877
aF0.79216
aF0.67911
aa(lp220
F0.9628
aF0.79736
aF0.68693
aa(lp221
F0.96653
aF0.80249
aF0.69475
aa(lp222
F0.96999
aF0.80756
aF0.70257
aa(lp223
F0.97319
aF0.81255
aF0.71036
aa(lp224
F0.97612
aF0.81747
aF0.71812
aa(lp225
F0.97881
aF0.82232
aF0.72585
aa(lp226
F0.98127
aF0.82709
aF0.73354
aa(lp227
F0.9835
aF0.83179
aF0.74119
aa(lp228
F0.98554
aF0.83641
aF0.74879
aa(lp229
F0.98738
aF0.84098
aF0.75636
aa(lp230
F0.98904
aF0.84547
aF0.76387
aa(lp231
F0.99053
aF0.84991
aF0.77135
aa(lp232
F0.99187
aF0.85429
aF0.77878
aa(lp233
F0.99307
aF0.85861
aF0.78618
aa(lp234
F0.99413
aF0.8629
aF0.79354
aa(lp235
F0.99507
aF0.86712
aF0.80087
aa(lp236
F0.9959
aF0.87132
aF0.80817
aa(lp237
F0.99663
aF0.87547
aF0.81544
aa(lp238
F0.99728
aF0.87959
aF0.82269
aa(lp239
F0.99783
aF0.88369
aF0.82991
aa(lp240
F0.99832
aF0.88775
aF0.83713
aa(lp241
F0.99873
aF0.89179
aF0.84432
aa(lp242
F0.99908
aF0.89582
aF0.85151
aa(lp243
F0.99938
aF0.89982
aF0.85869
aa(lp244
F0.99963
aF0.90381
aF0.86587
aa(lp245
F0.99983
aF0.90779
aF0.87304
aa(lp246
I1
aF0.91176
aF0.88021
aa(lp247
I1
aF0.91572
aF0.88739
aa(lp248
I1
aF0.91968
aF0.89458
aa(lp249
I1
aF0.92364
aF0.90177
aa(lp250
I1
aF0.92759
aF0.90897
aa(lp251
I1
aF0.93154
aF0.91617
aa(lp252
I1
aF0.9355
aF0.9234
aa(lp253
I1
aF0.93946
aF0.93063
aa(lp254
I1
aF0.94341
aF0.93787
aa(lp255
I1
aF0.94738
aF0.94512
aa(lp256
I1
aF0.95134
aF0.95239
aa.