(lp0
(lp1
F0.0013883
aF0.0031972
aF0.0012839
aa(lp2
F0.0028491
aF0.0072716
aF0.0098139
aa(lp3
F0.0043483
aF0.011582
aF0.018572
aa(lp4
F0.0058876
aF0.015812
aF0.027162
aa(lp5
F0.0074692
aF0.020076
aF0.035985
aa(lp6
F0.009098
aF0.024397
aF0.044441
aa(lp7
F0.010766
aF0.028769
aF0.052061
aa(lp8
F0.012679
aF0.033189
aF0.059155
aa(lp9
F0.014449
aF0.037844
aF0.065576
aa(lp10
F0.016273
aF0.042298
aF0.071644
aa(lp11
F0.018157
aF0.046488
aF0.077234
aa(lp12
F0.020106
aF0.050525
aF0.082651
aa(lp13
F0.022126
aF0.054367
aF0.087769
aa(lp14
F0.024224
aF0.058055
aF0.092586
aa(lp15
F0.026402
aF0.061644
aF0.097266
aa(lp16
F0.028523
aF0.065162
aF0.10191
aa(lp17
F0.030516
aF0.068598
aF0.10667
aa(lp18
F0.032378
aF0.071866
aF0.11141
aa(lp19
F0.034089
aF0.075085
aF0.11624
aa(lp20
F0.035908
aF0.078239
aF0.12107
aa(lp21
F0.037343
aF0.081455
aF0.12606
aa(lp22
F0.038644
aF0.084552
aF0.13106
aa(lp23
F0.039793
aF0.087614
aF0.13608
aa(lp24
F0.040772
aF0.090618
aF0.14125
aa(lp25
F0.041602
aF0.093581
aF0.1464
aa(lp26
F0.042185
aF0.096521
aF0.15163
aa(lp27
F0.042538
aF0.099583
aF0.15693
aa(lp28
F0.04294
aF0.10267
aF0.16228
aa(lp29
F0.043465
aF0.10581
aF0.16764
aa(lp30
F0.044118
aF0.10899
aF0.17306
aa(lp31
F0.044824
aF0.11223
aF0.17855
aa(lp32
F0.045473
aF0.11548
aF0.18403
aa(lp33
F0.046232
aF0.11882
aF0.18959
aa(lp34
F0.047131
aF0.12213
aF0.19517
aa(lp35
F0.047959
aF0.12557
aF0.20077
aa(lp36
F0.049023
aF0.12898
aF0.20647
aa(lp37
F0.049957
aF0.13247
aF0.21215
aa(lp38
F0.050971
aF0.13593
aF0.21786
aa(lp39
F0.052035
aF0.13946
aF0.22361
aa(lp40
F0.053154
aF0.14306
aF0.22938
aa(lp41
F0.054325
aF0.14662
aF0.23522
aa(lp42
F0.05554
aF0.15025
aF0.24103
aa(lp43
F0.056798
aF0.15385
aF0.24689
aa(lp44
F0.057943
aF0.15749
aF0.25278
aa(lp45
F0.059324
aF0.16119
aF0.25869
aa(lp46
F0.060556
aF0.16485
aF0.26462
aa(lp47
F0.061813
aF0.16856
aF0.2706
aa(lp48
F0.063199
aF0.17226
aF0.27657
aa(lp49
F0.06448
aF0.17598
aF0.28258
aa(lp50
F0.065806
aF0.17975
aF0.28859
aa(lp51
F0.067164
aF0.1835
aF0.29463
aa(lp52
F0.068553
aF0.1873
aF0.3007
aa(lp53
F0.069891
aF0.19107
aF0.30681
aa(lp54
F0.071275
aF0.19489
aF0.31291
aa(lp55
F0.072599
aF0.19869
aF0.31905
aa(lp56
F0.074021
aF0.20252
aF0.32519
aa(lp57
F0.075354
aF0.2064
aF0.33136
aa(lp58
F0.076721
aF0.21022
aF0.33757
aa(lp59
F0.078116
aF0.2141
aF0.34377
aa(lp60
F0.079539
aF0.21798
aF0.35002
aa(lp61
F0.080986
aF0.22185
aF0.35627
aa(lp62
F0.082429
aF0.22578
aF0.36253
aa(lp63
F0.083854
aF0.22966
aF0.36883
aa(lp64
F0.085235
aF0.23359
aF0.37513
aa(lp65
F0.086722
aF0.23756
aF0.38146
aa(lp66
F0.088175
aF0.24149
aF0.3878
aa(lp67
F0.08964
aF0.24542
aF0.39416
aa(lp68
F0.091141
aF0.24939
aF0.40056
aa(lp69
F0.092591
aF0.25338
aF0.40694
aa(lp70
F0.094151
aF0.25735
aF0.41336
aa(lp71
F0.095679
aF0.26134
aF0.41979
aa(lp72
F0.097232
aF0.26532
aF0.42623
aa(lp73
F0.098846
aF0.26934
aF0.4327
aa(lp74
F0.10047
aF0.27333
aF0.43916
aa(lp75
F0.10216
aF0.27733
aF0.44565
aa(lp76
F0.1039
aF0.28131
aF0.45216
aa(lp77
F0.10567
aF0.28531
aF0.45867
aa(lp78
F0.1075
aF0.28932
aF0.46519
aa(lp79
F0.10943
aF0.2933
aF0.47173
aa(lp80
F0.11138
aF0.2973
aF0.47826
aa(lp81
F0.11343
aF0.30126
aF0.48481
aa(lp82
F0.11552
aF0.30525
aF0.49138
aa(lp83
F0.11773
aF0.30921
aF0.49794
aa(lp84
F0.12001
aF0.31314
aF0.5045
aa(lp85
F0.12238
aF0.31707
aF0.51105
aa(lp86
F0.12488
aF0.32098
aF0.51763
aa(lp87
F0.12746
aF0.32487
aF0.52419
aa(lp88
F0.13019
aF0.32876
aF0.53076
aa(lp89
F0.13293
aF0.33263
aF0.53733
aa(lp90
F0.13577
aF0.33645
aF0.54389
aa(lp91
F0.13876
aF0.34028
aF0.55046
aa(lp92
F0.14182
aF0.34407
aF0.55702
aa(lp93
F0.14498
aF0.34788
aF0.56358
aa(lp94
F0.14817
aF0.35164
aF0.57013
aa(lp95
F0.15147
aF0.35541
aF0.57669
aa(lp96
F0.15484
aF0.35914
aF0.58324
aa(lp97
F0.1583
aF0.36287
aF0.58979
aa(lp98
F0.16182
aF0.3666
aF0.59635
aa(lp99
F0.16532
aF0.37029
aF0.6029
aa(lp100
F0.16899
aF0.37401
aF0.60946
aa(lp101
F0.17262
aF0.3777
aF0.61602
aa(lp102
F0.17632
aF0.38141
aF0.62259
aa(lp103
F0.18009
aF0.3851
aF0.62916
aa(lp104
F0.1839
aF0.38881
aF0.63574
aa(lp105
F0.18779
aF0.39252
aF0.64233
aa(lp106
F0.19165
aF0.39625
aF0.64893
aa(lp107
F0.19561
aF0.39999
aF0.65553
aa(lp108
F0.1996
aF0.40377
aF0.66215
aa(lp109
F0.20371
aF0.40755
aF0.66876
aa(lp110
F0.20784
aF0.41138
aF0.67537
aa(lp111
F0.21208
aF0.41524
aF0.68197
aa(lp112
F0.21639
aF0.41914
aF0.68858
aa(lp113
F0.22081
aF0.42308
aF0.69515
aa(lp114
F0.22531
aF0.42709
aF0.70168
aa(lp115
F0.22993
aF0.43113
aF0.70818
aa(lp116
F0.23475
aF0.43524
aF0.7146
aa(lp117
F0.23964
aF0.43939
aF0.72093
aa(lp118
F0.24467
aF0.4436
aF0.72715
aa(lp119
F0.24986
aF0.44785
aF0.73323
aa(lp120
F0.25522
aF0.45217
aF0.73914
aa(lp121
F0.26066
aF0.4565
aF0.74484
aa(lp122
F0.26626
aF0.46086
aF0.7503
aa(lp123
F0.27192
aF0.46523
aF0.75551
aa(lp124
F0.27773
aF0.46961
aF0.76042
aa(lp125
F0.28357
aF0.47395
aF0.76501
aa(lp126
F0.28947
aF0.47827
aF0.76926
aa(lp127
F0.29538
aF0.48254
aF0.77316
aa(lp128
F0.3013
aF0.48675
aF0.7767
aa(lp129
F0.3072
aF0.49089
aF0.77987
aa(lp130
F0.31307
aF0.49493
aF0.78268
aa(lp131
F0.31887
aF0.49888
aF0.78514
aa(lp132
F0.3246
aF0.50274
aF0.78726
aa(lp133
F0.33027
aF0.5065
aF0.78907
aa(lp134
F0.33584
aF0.51017
aF0.79057
aa(lp135
F0.34134
aF0.51374
aF0.79182
aa(lp136
F0.34675
aF0.51722
aF0.79283
aa(lp137
F0.35206
aF0.52061
aF0.79363
aa(lp138
F0.35733
aF0.52394
aF0.79424
aa(lp139
F0.3625
aF0.5272
aF0.7947
aa(lp140
F0.36762
aF0.53039
aF0.79502
aa(lp141
F0.3727
aF0.53353
aF0.79523
aa(lp142
F0.37773
aF0.53665
aF0.79536
aa(lp143
F0.38272
aF0.53971
aF0.79541
aa(lp144
F0.38768
aF0.54276
aF0.7954
aa(lp145
F0.39262
aF0.54578
aF0.79534
aa(lp146
F0.39754
aF0.54878
aF0.79525
aa(lp147
F0.40245
aF0.55177
aF0.79513
aa(lp148
F0.40735
aF0.55474
aF0.79499
aa(lp149
F0.41225
aF0.55772
aF0.79483
aa(lp150
F0.41714
aF0.56068
aF0.79466
aa(lp151
F0.42201
aF0.56365
aF0.79448
aa(lp152
F0.42691
aF0.56661
aF0.7943
aa(lp153
F0.43181
aF0.56957
aF0.79411
aa(lp154
F0.4367
aF0.57254
aF0.79392
aa(lp155
F0.44159
aF0.57551
aF0.79373
aa(lp156
F0.44649
aF0.57847
aF0.79354
aa(lp157
F0.45139
aF0.58143
aF0.79334
aa(lp158
F0.4563
aF0.58441
aF0.79314
aa(lp159
F0.46121
aF0.58737
aF0.79294
aa(lp160
F0.46612
aF0.59035
aF0.79275
aa(lp161
F0.47105
aF0.59333
aF0.79255
aa(lp162
F0.47597
aF0.5963
aF0.79235
aa(lp163
F0.48089
aF0.59928
aF0.79215
aa(lp164
F0.48582
aF0.60226
aF0.79195
aa(lp165
F0.49077
aF0.60524
aF0.79176
aa(lp166
F0.49569
aF0.60823
aF0.79156
aa(lp167
F0.50063
aF0.61122
aF0.79136
aa(lp168
F0.50557
aF0.6142
aF0.79116
aa(lp169
F0.51052
aF0.61719
aF0.79096
aa(lp170
F0.51547
aF0.62019
aF0.79076
aa(lp171
F0.52042
aF0.62317
aF0.79056
aa(lp172
F0.52539
aF0.62616
aF0.79036
aa(lp173
F0.53034
aF0.62916
aF0.79017
aa(lp174
F0.5353
aF0.63216
aF0.78997
aa(lp175
F0.54027
aF0.63515
aF0.78977
aa(lp176
F0.54524
aF0.63815
aF0.78957
aa(lp177
F0.55021
aF0.64115
aF0.78937
aa(lp178
F0.55518
aF0.64415
aF0.78917
aa(lp179
F0.56016
aF0.64715
aF0.78897
aa(lp180
F0.56512
aF0.65016
aF0.78877
aa(lp181
F0.57011
aF0.65315
aF0.78857
aa(lp182
F0.57509
aF0.65617
aF0.78837
aa(lp183
F0.58008
aF0.65917
aF0.78817
aa(lp184
F0.58507
aF0.66218
aF0.78797
aa(lp185
F0.59005
aF0.66519
aF0.78777
aa(lp186
F0.59504
aF0.6682
aF0.78757
aa(lp187
F0.60004
aF0.67121
aF0.78737
aa(lp188
F0.60503
aF0.67422
aF0.78717
aa(lp189
F0.61003
aF0.67724
aF0.78698
aa(lp190
F0.61503
aF0.68025
aF0.78678
aa(lp191
F0.62004
aF0.68327
aF0.78658
aa(lp192
F0.62504
aF0.68629
aF0.78638
aa(lp193
F0.63005
aF0.68931
aF0.78619
aa(lp194
F0.63506
aF0.69234
aF0.78599
aa(lp195
F0.64008
aF0.69536
aF0.78581
aa(lp196
F0.6451
aF0.69839
aF0.78562
aa(lp197
F0.65013
aF0.70143
aF0.78545
aa(lp198
F0.65516
aF0.70448
aF0.78528
aa(lp199
F0.6602
aF0.70753
aF0.78513
aa(lp200
F0.66525
aF0.7106
aF0.78499
aa(lp201
F0.67032
aF0.71368
aF0.78487
aa(lp202
F0.67538
aF0.71679
aF0.78478
aa(lp203
F0.68047
aF0.71991
aF0.78472
aa(lp204
F0.68559
aF0.72306
aF0.78471
aa(lp205
F0.69071
aF0.72625
aF0.78474
aa(lp206
F0.69588
aF0.72948
aF0.78484
aa(lp207
F0.70107
aF0.73276
aF0.785
aa(lp208
F0.7063
aF0.73609
aF0.78526
aa(lp209
F0.71157
aF0.73949
aF0.78561
aa(lp210
F0.71688
aF0.74296
aF0.78609
aa(lp211
F0.72223
aF0.74652
aF0.7867
aa(lp212
F0.72765
aF0.75016
aF0.78745
aa(lp213
F0.73313
aF0.75392
aF0.78838
aa(lp214
F0.73866
aF0.75778
aF0.7895
aa(lp215
F0.74426
aF0.76176
aF0.79082
aa(lp216
F0.74993
aF0.76588
aF0.79237
aa(lp217
F0.75567
aF0.77012
aF0.79416
aa(lp218
F0.76147
aF0.7745
aF0.79619
aa(lp219
F0.76734
aF0.77904
aF0.79849
aa(lp220
F0.77328
aF0.78371
aF0.80107
aa(lp221
F0.77928
aF0.78853
aF0.80392
aa(lp222
F0.78534
aF0.79349
aF0.80705
aa(lp223
F0.79145
aF0.79858
aF0.81045
aa(lp224
F0.7976
aF0.8038
aF0.81413
aa(lp225
F0.8038
aF0.80916
aF0.81807
aa(lp226
F0.81003
aF0.81462
aF0.82228
aa(lp227
F0.8163
aF0.8202
aF0.82672
aa(lp228
F0.82258
aF0.82588
aF0.83138
aa(lp229
F0.82888
aF0.83165
aF0.83626
aa(lp230
F0.83519
aF0.8375
aF0.84133
aa(lp231
F0.84151
aF0.84341
aF0.84657
aa(lp232
F0.84783
aF0.84939
aF0.85198
aa(lp233
F0.85416
aF0.85543
aF0.85752
aa(lp234
F0.86048
aF0.8615
aF0.8632
aa(lp235
F0.86681
aF0.86762
aF0.86897
aa(lp236
F0.87313
aF0.87377
aF0.87484
aa(lp237
F0.87945
aF0.87995
aF0.88079
aa(lp238
F0.88577
aF0.88616
aF0.88681
aa(lp239
F0.89209
aF0.89239
aF0.89288
aa(lp240
F0.8984
aF0.89863
aF0.89901
aa(lp241
F0.90472
aF0.90489
aF0.90518
aa(lp242
F0.91104
aF0.91117
aF0.91138
aa(lp243
F0.91736
aF0.91746
aF0.91761
aa(lp244
F0.92368
aF0.92375
aF0.92386
aa(lp245
F0.93001
aF0.93006
aF0.93014
aa(lp246
F0.93634
aF0.93637
aF0.93643
aa(lp247
F0.94268
aF0.9427
aF0.94274
aa(lp248
F0.94901
aF0.94903
aF0.94906
aa(lp249
F0.95536
aF0.95538
aF0.95539
aa(lp250
F0.96171
aF0.96172
aF0.96173
aa(lp251
F0.96808
aF0.96809
aF0.96809
aa(lp252
F0.97445
aF0.97445
aF0.97445
aa(lp253
F0.98082
aF0.98083
aF0.98083
aa(lp254
F0.98721
aF0.98721
aF0.98722
aa(lp255
F0.9936
aF0.9936
aF0.9936
aa(lp256
I1
aI1
aI1
aa.