(lp0
(lp1
F0.49603
aF0.10014
aF0.0022163
aa(lp2
F0.50091
aF0.1125
aF0.0061923
aa(lp3
F0.50575
aF0.12409
aF0.0099908
aa(lp4
F0.51059
aF0.13522
aF0.013845
aa(lp5
F0.5154
aF0.14591
aF0.017317
aa(lp6
F0.52019
aF0.15625
aF0.020617
aa(lp7
F0.52497
aF0.16626
aF0.023739
aa(lp8
F0.52971
aF0.17603
aF0.026689
aa(lp9
F0.53442
aF0.18566
aF0.029697
aa(lp10
F0.53909
aF0.19505
aF0.032889
aa(lp11
F0.54371
aF0.20431
aF0.03643
aa(lp12
F0.54831
aF0.2134
aF0.039977
aa(lp13
F0.55285
aF0.2224
aF0.043479
aa(lp14
F0.55736
aF0.23129
aF0.047165
aa(lp15
F0.56182
aF0.24006
aF0.050715
aa(lp16
F0.56624
aF0.24878
aF0.054267
aa(lp17
F0.57062
aF0.25739
aF0.057795
aa(lp18
F0.57496
aF0.26595
aF0.061349
aa(lp19
F0.57927
aF0.27442
aF0.064938
aa(lp20
F0.58352
aF0.28286
aF0.068497
aa(lp21
F0.58775
aF0.29123
aF0.071955
aa(lp22
F0.59195
aF0.29955
aF0.07542
aa(lp23
F0.59609
aF0.30782
aF0.078871
aa(lp24
F0.60021
aF0.31608
aF0.082401
aa(lp25
F0.6043
aF0.32426
aF0.085759
aa(lp26
F0.60836
aF0.33245
aF0.089249
aa(lp27
F0.61238
aF0.34057
aF0.092626
aa(lp28
F0.61638
aF0.34868
aF0.096024
aa(lp29
F0.62036
aF0.35677
aF0.099425
aa(lp30
F0.6243
aF0.36482
aF0.10282
aa(lp31
F0.62823
aF0.37286
aF0.1062
aa(lp32
F0.63213
aF0.3809
aF0.10956
aa(lp33
F0.63601
aF0.3889
aF0.11289
aa(lp34
F0.63988
aF0.39688
aF0.11621
aa(lp35
F0.64372
aF0.40487
aF0.1195
aa(lp36
F0.64756
aF0.41286
aF0.12278
aa(lp37
F0.65139
aF0.42081
aF0.12614
aa(lp38
F0.65519
aF0.42878
aF0.12942
aa(lp39
F0.65899
aF0.43673
aF0.13273
aa(lp40
F0.66279
aF0.44469
aF0.13598
aa(lp41
F0.66656
aF0.45265
aF0.13928
aa(lp42
F0.67035
aF0.46058
aF0.14261
aa(lp43
F0.67412
aF0.46855
aF0.14592
aa(lp44
F0.6779
aF0.47651
aF0.14922
aa(lp45
F0.68166
aF0.48447
aF0.15251
aa(lp46
F0.68544
aF0.49245
aF0.15588
aa(lp47
F0.68922
aF0.50044
aF0.1592
aa(lp48
F0.693
aF0.50844
aF0.16259
aa(lp49
F0.69678
aF0.51645
aF0.16595
aa(lp50
F0.70057
aF0.52448
aF0.16942
aa(lp51
F0.70438
aF0.53253
aF0.17285
aa(lp52
F0.7082
aF0.5406
aF0.17635
aa(lp53
F0.71203
aF0.5487
aF0.17992
aa(lp54
F0.71588
aF0.55682
aF0.18355
aa(lp55
F0.71975
aF0.56497
aF0.18727
aa(lp56
F0.72365
aF0.57317
aF0.19103
aa(lp57
F0.72757
aF0.5814
aF0.19493
aa(lp58
F0.73153
aF0.58967
aF0.1989
aa(lp59
F0.73552
aF0.59799
aF0.20303
aa(lp60
F0.73955
aF0.60636
aF0.20731
aa(lp61
F0.74361
aF0.61477
aF0.21174
aa(lp62
F0.74773
aF0.62326
aF0.21635
aa(lp63
F0.75189
aF0.63179
aF0.22115
aa(lp64
F0.75611
aF0.64039
aF0.22617
aa(lp65
F0.76038
aF0.64905
aF0.23144
aa(lp66
F0.7647
aF0.65777
aF0.23697
aa(lp67
F0.76908
aF0.66653
aF0.24275
aa(lp68
F0.77353
aF0.67537
aF0.24888
aa(lp69
F0.77804
aF0.68425
aF0.2553
aa(lp70
F0.7826
aF0.69318
aF0.26206
aa(lp71
F0.78722
aF0.70213
aF0.26918
aa(lp72
F0.79188
aF0.71112
aF0.27664
aa(lp73
F0.79659
aF0.7201
aF0.28446
aa(lp74
F0.80134
aF0.72907
aF0.29266
aa(lp75
F0.80612
aF0.73802
aF0.30121
aa(lp76
F0.81091
aF0.74691
aF0.31015
aa(lp77
F0.81571
aF0.75573
aF0.3194
aa(lp78
F0.8205
aF0.76444
aF0.329
aa(lp79
F0.82526
aF0.77303
aF0.3389
aa(lp80
F0.82999
aF0.78147
aF0.34908
aa(lp81
F0.83467
aF0.78972
aF0.35951
aa(lp82
F0.83927
aF0.79777
aF0.37017
aa(lp83
F0.84378
aF0.80559
aF0.38103
aa(lp84
F0.8482
aF0.81316
aF0.39203
aa(lp85
F0.8525
aF0.82047
aF0.40316
aa(lp86
F0.85666
aF0.82748
aF0.41436
aa(lp87
F0.86069
aF0.83421
aF0.42562
aa(lp88
F0.86457
aF0.84062
aF0.43691
aa(lp89
F0.86829
aF0.84671
aF0.44817
aa(lp90
F0.87183
aF0.8525
aF0.45941
aa(lp91
F0.8752
aF0.85796
aF0.47057
aa(lp92
F0.87838
aF0.86313
aF0.48166
aa(lp93
F0.88139
aF0.86799
aF0.49264
aa(lp94
F0.8842
aF0.87256
aF0.50351
aa(lp95
F0.88683
aF0.87684
aF0.51427
aa(lp96
F0.88925
aF0.88086
aF0.52488
aa(lp97
F0.89149
aF0.88463
aF0.53536
aa(lp98
F0.89352
aF0.88816
aF0.54571
aa(lp99
F0.89535
aF0.89146
aF0.55589
aa(lp100
F0.89697
aF0.89457
aF0.56595
aa(lp101
F0.89838
aF0.89747
aF0.57587
aa(lp102
F0.89958
aF0.90019
aF0.58564
aa(lp103
F0.90055
aF0.90275
aF0.59527
aa(lp104
F0.9013
aF0.90515
aF0.60477
aa(lp105
F0.90181
aF0.90741
aF0.61412
aa(lp106
F0.90207
aF0.90954
aF0.62336
aa(lp107
F0.90208
aF0.91154
aF0.63245
aa(lp108
F0.90182
aF0.91342
aF0.6414
aa(lp109
F0.90128
aF0.91519
aF0.65022
aa(lp110
F0.90045
aF0.91685
aF0.6589
aa(lp111
F0.89933
aF0.91841
aF0.66744
aa(lp112
F0.8979
aF0.91987
aF0.67583
aa(lp113
F0.89614
aF0.92124
aF0.68407
aa(lp114
F0.89405
aF0.92251
aF0.69216
aa(lp115
F0.89162
aF0.92368
aF0.70007
aa(lp116
F0.88884
aF0.92476
aF0.70782
aa(lp117
F0.8857
aF0.92575
aF0.7154
aa(lp118
F0.88219
aF0.92663
aF0.72279
aa(lp119
F0.87831
aF0.92742
aF0.73
aa(lp120
F0.87406
aF0.92812
aF0.737
aa(lp121
F0.86943
aF0.92872
aF0.74381
aa(lp122
F0.86442
aF0.92921
aF0.75041
aa(lp123
F0.85903
aF0.92961
aF0.7568
aa(lp124
F0.85326
aF0.9299
aF0.76298
aa(lp125
F0.84712
aF0.93008
aF0.76894
aa(lp126
F0.84062
aF0.93015
aF0.77468
aa(lp127
F0.83376
aF0.93011
aF0.78021
aa(lp128
F0.82654
aF0.92996
aF0.78552
aa(lp129
F0.81897
aF0.92968
aF0.7906
aa(lp130
F0.81107
aF0.92929
aF0.79546
aa(lp131
F0.80284
aF0.92878
aF0.80012
aa(lp132
F0.7943
aF0.92814
aF0.80456
aa(lp133
F0.78544
aF0.92737
aF0.8088
aa(lp134
F0.77629
aF0.92647
aF0.81283
aa(lp135
F0.76685
aF0.92542
aF0.81666
aa(lp136
F0.75714
aF0.92424
aF0.82029
aa(lp137
F0.74717
aF0.9229
aF0.82374
aa(lp138
F0.73695
aF0.9214
aF0.827
aa(lp139
F0.72648
aF0.91975
aF0.83008
aa(lp140
F0.7158
aF0.91793
aF0.83297
aa(lp141
F0.70489
aF0.91592
aF0.83569
aa(lp142
F0.69378
aF0.91375
aF0.83824
aa(lp143
F0.68249
aF0.91137
aF0.84061
aa(lp144
F0.67103
aF0.90881
aF0.84281
aa(lp145
F0.65941
aF0.90604
aF0.84484
aa(lp146
F0.64765
aF0.90306
aF0.8467
aa(lp147
F0.63578
aF0.89987
aF0.84838
aa(lp148
F0.62381
aF0.89646
aF0.84989
aa(lp149
F0.61176
aF0.89282
aF0.85122
aa(lp150
F0.59966
aF0.88897
aF0.85239
aa(lp151
F0.58753
aF0.88488
aF0.85336
aa(lp152
F0.57541
aF0.88056
aF0.85416
aa(lp153
F0.56332
aF0.87602
aF0.85477
aa(lp154
F0.55128
aF0.87125
aF0.8552
aa(lp155
F0.53932
aF0.86627
aF0.85545
aa(lp156
F0.52749
aF0.86106
aF0.85551
aa(lp157
F0.5158
aF0.85566
aF0.85538
aa(lp158
F0.50431
aF0.85005
aF0.85507
aa(lp159
F0.49299
aF0.84424
aF0.85458
aa(lp160
F0.48194
aF0.83826
aF0.8539
aa(lp161
F0.47114
aF0.83212
aF0.85306
aa(lp162
F0.46061
aF0.82581
aF0.85205
aa(lp163
F0.45042
aF0.81935
aF0.85086
aa(lp164
F0.44053
aF0.81277
aF0.84953
aa(lp165
F0.431
aF0.80607
aF0.84804
aa(lp166
F0.4218
aF0.79927
aF0.8464
aa(lp167
F0.41298
aF0.79236
aF0.84463
aa(lp168
F0.40451
aF0.78538
aF0.84273
aa(lp169
F0.39642
aF0.77833
aF0.84071
aa(lp170
F0.3887
aF0.77122
aF0.83857
aa(lp171
F0.38133
aF0.76405
aF0.83634
aa(lp172
F0.37431
aF0.75685
aF0.83401
aa(lp173
F0.36762
aF0.74961
aF0.83159
aa(lp174
F0.36128
aF0.74236
aF0.82909
aa(lp175
F0.35526
aF0.73508
aF0.82652
aa(lp176
F0.34951
aF0.72779
aF0.82389
aa(lp177
F0.34404
aF0.72049
aF0.8212
aa(lp178
F0.33885
aF0.7132
aF0.81845
aa(lp179
F0.3339
aF0.70591
aF0.81568
aa(lp180
F0.32918
aF0.69862
aF0.81285
aa(lp181
F0.32464
aF0.69134
aF0.80999
aa(lp182
F0.32032
aF0.68408
aF0.80711
aa(lp183
F0.31616
aF0.67684
aF0.8042
aa(lp184
F0.31213
aF0.6696
aF0.80127
aa(lp185
F0.30828
aF0.66238
aF0.79833
aa(lp186
F0.30454
aF0.65518
aF0.79537
aa(lp187
F0.30091
aF0.648
aF0.7924
aa(lp188
F0.2974
aF0.64084
aF0.78943
aa(lp189
F0.29396
aF0.6337
aF0.78645
aa(lp190
F0.29061
aF0.62658
aF0.78346
aa(lp191
F0.28733
aF0.61949
aF0.78048
aa(lp192
F0.28412
aF0.61241
aF0.7775
aa(lp193
F0.28095
aF0.60536
aF0.77451
aa(lp194
F0.27786
aF0.59833
aF0.77153
aa(lp195
F0.27478
aF0.59133
aF0.76855
aa(lp196
F0.27175
aF0.58435
aF0.76558
aa(lp197
F0.26878
aF0.57739
aF0.76261
aa(lp198
F0.26582
aF0.57045
aF0.75965
aa(lp199
F0.26288
aF0.56355
aF0.7567
aa(lp200
F0.25998
aF0.55665
aF0.75376
aa(lp201
F0.2571
aF0.54979
aF0.75082
aa(lp202
F0.25424
aF0.54295
aF0.74789
aa(lp203
F0.2514
aF0.53613
aF0.74497
aa(lp204
F0.24858
aF0.52934
aF0.74205
aa(lp205
F0.24575
aF0.52256
aF0.73915
aa(lp206
F0.24296
aF0.5158
aF0.73625
aa(lp207
F0.24018
aF0.50909
aF0.73337
aa(lp208
F0.23745
aF0.50238
aF0.73049
aa(lp209
F0.2347
aF0.4957
aF0.72761
aa(lp210
F0.23196
aF0.48904
aF0.72476
aa(lp211
F0.22922
aF0.48241
aF0.7219
aa(lp212
F0.22652
aF0.4758
aF0.71906
aa(lp213
F0.22381
aF0.46921
aF0.71623
aa(lp214
F0.22114
aF0.46263
aF0.7134
aa(lp215
F0.21845
aF0.45609
aF0.71058
aa(lp216
F0.21579
aF0.44957
aF0.70777
aa(lp217
F0.21311
aF0.44307
aF0.70497
aa(lp218
F0.21047
aF0.43658
aF0.70218
aa(lp219
F0.20784
aF0.43012
aF0.69939
aa(lp220
F0.2052
aF0.42367
aF0.69662
aa(lp221
F0.20258
aF0.41726
aF0.69384
aa(lp222
F0.19995
aF0.41086
aF0.69108
aa(lp223
F0.19737
aF0.40447
aF0.68833
aa(lp224
F0.19479
aF0.39811
aF0.68558
aa(lp225
F0.19218
aF0.39177
aF0.68284
aa(lp226
F0.1896
aF0.38543
aF0.6801
aa(lp227
F0.18702
aF0.37913
aF0.67739
aa(lp228
F0.18444
aF0.37283
aF0.67466
aa(lp229
F0.18185
aF0.36657
aF0.67194
aa(lp230
F0.1793
aF0.3603
aF0.66923
aa(lp231
F0.17672
aF0.35406
aF0.66652
aa(lp232
F0.17416
aF0.34784
aF0.66383
aa(lp233
F0.17157
aF0.34162
aF0.66113
aa(lp234
F0.16902
aF0.33543
aF0.65844
aa(lp235
F0.16642
aF0.32924
aF0.65576
aa(lp236
F0.16385
aF0.32305
aF0.65307
aa(lp237
F0.16125
aF0.31688
aF0.6504
aa(lp238
F0.15863
aF0.31073
aF0.64772
aa(lp239
F0.156
aF0.30457
aF0.64505
aa(lp240
F0.15331
aF0.29842
aF0.64239
aa(lp241
F0.15065
aF0.29229
aF0.63973
aa(lp242
F0.14796
aF0.28615
aF0.63707
aa(lp243
F0.14526
aF0.28003
aF0.63441
aa(lp244
F0.14247
aF0.27392
aF0.63175
aa(lp245
F0.13963
aF0.26777
aF0.62909
aa(lp246
F0.13681
aF0.26167
aF0.62644
aa(lp247
F0.13393
aF0.25555
aF0.62379
aa(lp248
F0.13098
aF0.24942
aF0.62114
aa(lp249
F0.12796
aF0.24328
aF0.61849
aa(lp250
F0.12484
aF0.23718
aF0.61583
aa(lp251
F0.12165
aF0.23102
aF0.61318
aa(lp252
F0.11846
aF0.22483
aF0.61054
aa(lp253
F0.11504
aF0.21869
aF0.60789
aa(lp254
F0.11162
aF0.2125
aF0.60524
aa(lp255
F0.10798
aF0.20632
aF0.60259
aa(lp256
F0.10426
aF0.20005
aF0.59994
aa.