(lp0
(lp1
F0.0026851
aF0.06963
aF0.37895
aa(lp2
F0.003454
aF0.076322
aF0.38305
aa(lp3
F0.0041431
aF0.082996
aF0.38713
aa(lp4
F0.0047564
aF0.089561
aF0.39121
aa(lp5
F0.0052987
aF0.09597
aF0.39527
aa(lp6
F0.005775
aF0.10235
aF0.3993
aa(lp7
F0.0061905
aF0.10862
aF0.40335
aa(lp8
F0.0065508
aF0.11484
aF0.40736
aa(lp9
F0.0068616
aF0.12103
aF0.41136
aa(lp10
F0.007128
aF0.12718
aF0.41535
aa(lp11
F0.0073549
aF0.13332
aF0.41933
aa(lp12
F0.0075469
aF0.13936
aF0.42327
aa(lp13
F0.0077087
aF0.14548
aF0.42723
aa(lp14
F0.0078443
aF0.15147
aF0.43116
aa(lp15
F0.0079575
aF0.15749
aF0.43508
aa(lp16
F0.0080517
aF0.16353
aF0.43897
aa(lp17
F0.0081299
aF0.16954
aF0.44288
aa(lp18
F0.0081947
aF0.1755
aF0.44677
aa(lp19
F0.0082484
aF0.18148
aF0.45066
aa(lp20
F0.0082929
aF0.18752
aF0.45454
aa(lp21
F0.0083302
aF0.19351
aF0.45841
aa(lp22
F0.008362
aF0.19949
aF0.46229
aa(lp23
F0.0083898
aF0.20552
aF0.46617
aa(lp24
F0.0084155
aF0.21156
aF0.47006
aa(lp25
F0.008441
aF0.21759
aF0.47393
aa(lp26
F0.0084684
aF0.22364
aF0.47783
aa(lp27
F0.0085005
aF0.22969
aF0.48173
aa(lp28
F0.0085406
aF0.2358
aF0.48563
aa(lp29
F0.008593
aF0.2419
aF0.48954
aa(lp30
F0.0086632
aF0.24804
aF0.49347
aa(lp31
F0.0087579
aF0.25417
aF0.49742
aa(lp32
F0.0088862
aF0.26034
aF0.50137
aa(lp33
F0.0090587
aF0.26654
aF0.50533
aa(lp34
F0.0092877
aF0.27276
aF0.50932
aa(lp35
F0.0095849
aF0.27902
aF0.51333
aa(lp36
F0.0099573
aF0.28528
aF0.51736
aa(lp37
F0.010445
aF0.29162
aF0.5214
aa(lp38
F0.011209
aF0.29795
aF0.52548
aa(lp39
F0.012164
aF0.30435
aF0.52958
aa(lp40
F0.013163
aF0.31079
aF0.5337
aa(lp41
F0.014464
aF0.31724
aF0.53788
aa(lp42
F0.016064
aF0.32375
aF0.54207
aa(lp43
F0.01803
aF0.33031
aF0.54631
aa(lp44
F0.020428
aF0.33692
aF0.55057
aa(lp45
F0.023331
aF0.34358
aF0.55489
aa(lp46
F0.026818
aF0.3503
aF0.55925
aa(lp47
F0.030981
aF0.35707
aF0.56366
aa(lp48
F0.036112
aF0.36389
aF0.56811
aa(lp49
F0.041928
aF0.37078
aF0.57263
aa(lp50
F0.048123
aF0.37774
aF0.57719
aa(lp51
F0.054847
aF0.38476
aF0.58181
aa(lp52
F0.061981
aF0.39186
aF0.58649
aa(lp53
F0.06956
aF0.39901
aF0.59122
aa(lp54
F0.077319
aF0.40626
aF0.59602
aa(lp55
F0.085546
aF0.41355
aF0.60087
aa(lp56
F0.094173
aF0.42092
aF0.60578
aa(lp57
F0.10306
aF0.42836
aF0.61076
aa(lp58
F0.11225
aF0.43587
aF0.61579
aa(lp59
F0.12168
aF0.44344
aF0.62087
aa(lp60
F0.13148
aF0.45107
aF0.626
aa(lp61
F0.14151
aF0.45876
aF0.63119
aa(lp62
F0.15174
aF0.4665
aF0.63642
aa(lp63
F0.16227
aF0.4743
aF0.64168
aa(lp64
F0.17296
aF0.48214
aF0.647
aa(lp65
F0.18387
aF0.49002
aF0.65234
aa(lp66
F0.19499
aF0.49796
aF0.65772
aa(lp67
F0.20628
aF0.50589
aF0.66312
aa(lp68
F0.2177
aF0.51389
aF0.66854
aa(lp69
F0.22927
aF0.52188
aF0.67398
aa(lp70
F0.24098
aF0.52991
aF0.67943
aa(lp71
F0.25282
aF0.53795
aF0.6849
aa(lp72
F0.26475
aF0.546
aF0.69037
aa(lp73
F0.2768
aF0.55404
aF0.69586
aa(lp74
F0.28892
aF0.5621
aF0.70134
aa(lp75
F0.30111
aF0.57013
aF0.70682
aa(lp76
F0.31339
aF0.57817
aF0.7123
aa(lp77
F0.3257
aF0.58621
aF0.71778
aa(lp78
F0.33808
aF0.59423
aF0.72324
aa(lp79
F0.35051
aF0.60224
aF0.72869
aa(lp80
F0.36295
aF0.61023
aF0.73414
aa(lp81
F0.37543
aF0.61821
aF0.73959
aa(lp82
F0.38794
aF0.62616
aF0.745
aa(lp83
F0.40048
aF0.63411
aF0.75041
aa(lp84
F0.41302
aF0.64202
aF0.75581
aa(lp85
F0.42557
aF0.64992
aF0.76119
aa(lp86
F0.43814
aF0.6578
aF0.76656
aa(lp87
F0.4507
aF0.66565
aF0.77192
aa(lp88
F0.46326
aF0.67349
aF0.77727
aa(lp89
F0.47584
aF0.6813
aF0.78259
aa(lp90
F0.48841
aF0.6891
aF0.78791
aa(lp91
F0.50097
aF0.69687
aF0.79321
aa(lp92
F0.51353
aF0.70463
aF0.7985
aa(lp93
F0.52608
aF0.71236
aF0.80378
aa(lp94
F0.53863
aF0.72008
aF0.80905
aa(lp95
F0.55116
aF0.72778
aF0.81429
aa(lp96
F0.5637
aF0.73547
aF0.81953
aa(lp97
F0.57622
aF0.74314
aF0.82477
aa(lp98
F0.58872
aF0.75079
aF0.82999
aa(lp99
F0.60124
aF0.75843
aF0.83519
aa(lp100
F0.61373
aF0.76605
aF0.84039
aa(lp101
F0.62623
aF0.77365
aF0.84557
aa(lp102
F0.63871
aF0.78125
aF0.85074
aa(lp103
F0.65119
aF0.78883
aF0.8559
aa(lp104
F0.66365
aF0.79638
aF0.86103
aa(lp105
F0.6761
aF0.80393
aF0.86614
aa(lp106
F0.68855
aF0.81145
aF0.87122
aa(lp107
F0.70098
aF0.81893
aF0.87626
aa(lp108
F0.71338
aF0.82639
aF0.88125
aa(lp109
F0.72577
aF0.83381
aF0.88619
aa(lp110
F0.73811
aF0.84117
aF0.89103
aa(lp111
F0.75042
aF0.84846
aF0.89578
aa(lp112
F0.76266
aF0.85568
aF0.9004
aa(lp113
F0.77482
aF0.86279
aF0.90486
aa(lp114
F0.78689
aF0.86975
aF0.90912
aa(lp115
F0.79881
aF0.87657
aF0.91315
aa(lp116
F0.81057
aF0.88319
aF0.9169
aa(lp117
F0.82212
aF0.88957
aF0.9203
aa(lp118
F0.83341
aF0.89567
aF0.92331
aa(lp119
F0.84439
aF0.90144
aF0.92586
aa(lp120
F0.85501
aF0.90683
aF0.92789
aa(lp121
F0.86518
aF0.91178
aF0.92934
aa(lp122
F0.87485
aF0.91624
aF0.93014
aa(lp123
F0.88395
aF0.92016
aF0.93024
aa(lp124
F0.89242
aF0.92348
aF0.92958
aa(lp125
F0.90018
aF0.92617
aF0.92812
aa(lp126
F0.90718
aF0.92818
aF0.92584
aa(lp127
F0.91339
aF0.92949
aF0.92272
aa(lp128
F0.91874
aF0.93009
aF0.91873
aa(lp129
F0.92325
aF0.92996
aF0.91392
aa(lp130
F0.92687
aF0.92911
aF0.90828
aa(lp131
F0.92963
aF0.92756
aF0.90186
aa(lp132
F0.93154
aF0.92534
aF0.8947
aa(lp133
F0.93264
aF0.92248
aF0.88686
aa(lp134
F0.93297
aF0.91903
aF0.8784
aa(lp135
F0.93257
aF0.91504
aF0.86939
aa(lp136
F0.93153
aF0.91056
aF0.85989
aa(lp137
F0.92988
aF0.90566
aF0.84997
aa(lp138
F0.92771
aF0.90037
aF0.8397
aa(lp139
F0.92508
aF0.89476
aF0.82914
aa(lp140
F0.92205
aF0.88887
aF0.81833
aa(lp141
F0.91868
aF0.88276
aF0.80734
aa(lp142
F0.91503
aF0.87647
aF0.79619
aa(lp143
F0.91115
aF0.87002
aF0.78494
aa(lp144
F0.90708
aF0.86347
aF0.77359
aa(lp145
F0.90286
aF0.85682
aF0.7622
aa(lp146
F0.89852
aF0.85011
aF0.75078
aa(lp147
F0.8941
aF0.84335
aF0.73933
aa(lp148
F0.8896
aF0.83655
aF0.72787
aa(lp149
F0.88506
aF0.82974
aF0.71642
aa(lp150
F0.88048
aF0.82291
aF0.70498
aa(lp151
F0.87588
aF0.81608
aF0.69355
aa(lp152
F0.87127
aF0.80926
aF0.68215
aa(lp153
F0.86665
aF0.80243
aF0.67077
aa(lp154
F0.86203
aF0.79562
aF0.65941
aa(lp155
F0.8574
aF0.78882
aF0.64808
aa(lp156
F0.85279
aF0.78203
aF0.63678
aa(lp157
F0.84818
aF0.77525
aF0.6255
aa(lp158
F0.84357
aF0.76849
aF0.61425
aa(lp159
F0.83898
aF0.76174
aF0.60303
aa(lp160
F0.8344
aF0.75502
aF0.59184
aa(lp161
F0.82983
aF0.7483
aF0.58067
aa(lp162
F0.82526
aF0.74159
aF0.56952
aa(lp163
F0.8207
aF0.73491
aF0.55841
aa(lp164
F0.81616
aF0.72823
aF0.54733
aa(lp165
F0.81162
aF0.72156
aF0.53627
aa(lp166
F0.80709
aF0.71492
aF0.52523
aa(lp167
F0.80256
aF0.70828
aF0.51423
aa(lp168
F0.79805
aF0.70166
aF0.50323
aa(lp169
F0.79355
aF0.69504
aF0.49228
aa(lp170
F0.78905
aF0.68845
aF0.48134
aa(lp171
F0.78455
aF0.68185
aF0.47043
aa(lp172
F0.78006
aF0.67527
aF0.45953
aa(lp173
F0.77558
aF0.66869
aF0.44866
aa(lp174
F0.7711
aF0.66212
aF0.43781
aa(lp175
F0.76662
aF0.65555
aF0.42697
aa(lp176
F0.76214
aF0.64898
aF0.41615
aa(lp177
F0.75767
aF0.64242
aF0.40535
aa(lp178
F0.75319
aF0.63585
aF0.39456
aa(lp179
F0.74871
aF0.62928
aF0.38379
aa(lp180
F0.74422
aF0.6227
aF0.37301
aa(lp181
F0.73973
aF0.61611
aF0.36227
aa(lp182
F0.73522
aF0.60951
aF0.35151
aa(lp183
F0.7307
aF0.60289
aF0.34078
aa(lp184
F0.72617
aF0.59625
aF0.33004
aa(lp185
F0.72162
aF0.58957
aF0.3193
aa(lp186
F0.71705
aF0.58288
aF0.30857
aa(lp187
F0.71245
aF0.57616
aF0.29783
aa(lp188
F0.70782
aF0.56937
aF0.28709
aa(lp189
F0.70316
aF0.56256
aF0.27638
aa(lp190
F0.69846
aF0.55567
aF0.26564
aa(lp191
F0.69372
aF0.54875
aF0.25492
aa(lp192
F0.68895
aF0.54173
aF0.24416
aa(lp193
F0.68411
aF0.53467
aF0.23344
aa(lp194
F0.67922
aF0.52753
aF0.22277
aa(lp195
F0.67429
aF0.5203
aF0.2121
aa(lp196
F0.6693
aF0.513
aF0.20141
aa(lp197
F0.66425
aF0.50561
aF0.19081
aa(lp198
F0.65914
aF0.49816
aF0.18025
aa(lp199
F0.65398
aF0.4906
aF0.16978
aa(lp200
F0.64877
aF0.48296
aF0.15935
aa(lp201
F0.6435
aF0.47525
aF0.14904
aa(lp202
F0.6382
aF0.46746
aF0.13884
aa(lp203
F0.63285
aF0.45962
aF0.12877
aa(lp204
F0.62748
aF0.45172
aF0.1189
aa(lp205
F0.62207
aF0.44377
aF0.10918
aa(lp206
F0.61667
aF0.43579
aF0.099621
aa(lp207
F0.61126
aF0.42779
aF0.090334
aa(lp208
F0.60584
aF0.41978
aF0.081273
aa(lp209
F0.60046
aF0.41177
aF0.072424
aa(lp210
F0.59509
aF0.4038
aF0.063915
aa(lp211
F0.58975
aF0.39584
aF0.055663
aa(lp212
F0.58447
aF0.38792
aF0.047695
aa(lp213
F0.57923
aF0.38006
aF0.040174
aa(lp214
F0.57404
aF0.37224
aF0.033063
aa(lp215
F0.5689
aF0.3645
aF0.027168
aa(lp216
F0.56384
aF0.35683
aF0.022196
aa(lp217
F0.55881
aF0.34921
aF0.018034
aa(lp218
F0.55386
aF0.34167
aF0.014581
aa(lp219
F0.54897
aF0.3342
aF0.011746
aa(lp220
F0.54412
aF0.32678
aF0.0092502
aa(lp221
F0.53933
aF0.31945
aF0.007397
aa(lp222
F0.53459
aF0.31215
aF0.0059401
aa(lp223
F0.52989
aF0.30494
aF0.004816
aa(lp224
F0.52522
aF0.29776
aF0.0039734
aa(lp225
F0.52058
aF0.29063
aF0.0033686
aa(lp226
F0.51598
aF0.28355
aF0.0029644
aa(lp227
F0.5114
aF0.27652
aF0.0027297
aa(lp228
F0.50684
aF0.2695
aF0.0026383
aa(lp229
F0.5023
aF0.26251
aF0.0026688
aa(lp230
F0.49778
aF0.25555
aF0.0028034
aa(lp231
F0.49324
aF0.24863
aF0.0030278
aa(lp232
F0.48873
aF0.24171
aF0.0033302
aa(lp233
F0.48422
aF0.23483
aF0.0036907
aa(lp234
F0.47972
aF0.22794
aF0.0040153
aa(lp235
F0.47522
aF0.22107
aF0.0042852
aa(lp236
F0.47071
aF0.21421
aF0.0045033
aa(lp237
F0.46621
aF0.20736
aF0.0046729
aa(lp238
F0.46171
aF0.20049
aF0.0047976
aa(lp239
F0.4572
aF0.19368
aF0.004881
aa(lp240
F0.4527
aF0.18683
aF0.0049265
aa(lp241
F0.44817
aF0.17999
aF0.0049374
aa(lp242
F0.44365
aF0.17315
aF0.0049167
aa(lp243
F0.43911
aF0.16631
aF0.0048667
aa(lp244
F0.43457
aF0.15944
aF0.0047896
aa(lp245
F0.43002
aF0.15256
aF0.0046867
aa(lp246
F0.42545
aF0.1457
aF0.0045588
aa(lp247
F0.42086
aF0.13873
aF0.0044062
aa(lp248
F0.41628
aF0.13175
aF0.0042285
aa(lp249
F0.41167
aF0.12469
aF0.0040249
aa(lp250
F0.40706
aF0.11758
aF0.0037937
aa(lp251
F0.40243
aF0.11042
aF0.003533
aa(lp252
F0.3978
aF0.1031
aF0.0032405
aa(lp253
F0.39314
aF0.095638
aF0.0029134
aa(lp254
F0.38848
aF0.08803
aF0.0025486
aa(lp255
F0.38381
aF0.08016
aF0.0021432
aa(lp256
F0.37913
aF0.072062
aF0.0016937
aa.